Archive member included to satisfy reference by file (symbol)

C:\Users\JumpStart\Desktop\lehre\asyd\dev\Ada_Drivers_Library-master\boards\MicroBit\obj\zfp_lib_Debug\libada_drivers_library.a(cortex_m-nvic.o)
                              b__main.o (cortex_m__nvic___elabs)
C:\Users\JumpStart\Desktop\lehre\asyd\dev\Ada_Drivers_Library-master\boards\MicroBit\obj\zfp_lib_Debug\libada_drivers_library.a(crt0.o)
                              (_start)
C:\Users\JumpStart\Desktop\lehre\asyd\dev\Ada_Drivers_Library-master\boards\MicroBit\obj\zfp_lib_Debug\libada_drivers_library.a(memory_barriers.o)
                              C:\Users\JumpStart\Desktop\lehre\asyd\dev\Ada_Drivers_Library-master\boards\MicroBit\obj\zfp_lib_Debug\libada_drivers_library.a(cortex_m-nvic.o) (memory_barriers__data_synchronization_barrier)
C:\Users\JumpStart\Desktop\lehre\asyd\dev\Ada_Drivers_Library-master\boards\MicroBit\obj\zfp_lib_Debug\libada_drivers_library.a(microbit-console.o)
                              main.o (microbit__console__put_line)
C:\Users\JumpStart\Desktop\lehre\asyd\dev\Ada_Drivers_Library-master\boards\MicroBit\obj\zfp_lib_Debug\libada_drivers_library.a(microbit-display.o)
                              main.o (microbit__display__display__2)
C:\Users\JumpStart\Desktop\lehre\asyd\dev\Ada_Drivers_Library-master\boards\MicroBit\obj\zfp_lib_Debug\libada_drivers_library.a(microbit-time.o)
                              C:\Users\JumpStart\Desktop\lehre\asyd\dev\Ada_Drivers_Library-master\boards\MicroBit\obj\zfp_lib_Debug\libada_drivers_library.a(microbit-display.o) (microbit__time__tick_subscribe)
C:\Users\JumpStart\Desktop\lehre\asyd\dev\Ada_Drivers_Library-master\boards\MicroBit\obj\zfp_lib_Debug\libada_drivers_library.a(nrf-clock.o)
                              C:\Users\JumpStart\Desktop\lehre\asyd\dev\Ada_Drivers_Library-master\boards\MicroBit\obj\zfp_lib_Debug\libada_drivers_library.a(microbit-time.o) (nrf__clock__set_low_freq_source)
C:\Users\JumpStart\Desktop\lehre\asyd\dev\Ada_Drivers_Library-master\boards\MicroBit\obj\zfp_lib_Debug\libada_drivers_library.a(nrf-device.o)
                              b__main.o (nrf__device___elabb)
C:\Users\JumpStart\Desktop\lehre\asyd\dev\Ada_Drivers_Library-master\boards\MicroBit\obj\zfp_lib_Debug\libada_drivers_library.a(nrf-events.o)
                              C:\Users\JumpStart\Desktop\lehre\asyd\dev\Ada_Drivers_Library-master\boards\MicroBit\obj\zfp_lib_Debug\libada_drivers_library.a(microbit-time.o) (nrf__events__enable_interrupt)
C:\Users\JumpStart\Desktop\lehre\asyd\dev\Ada_Drivers_Library-master\boards\MicroBit\obj\zfp_lib_Debug\libada_drivers_library.a(nrf-gpio.o)
                              C:\Users\JumpStart\Desktop\lehre\asyd\dev\Ada_Drivers_Library-master\boards\MicroBit\obj\zfp_lib_Debug\libada_drivers_library.a(microbit-display.o) (nrf__gpio__gpio_configurationIP)
C:\Users\JumpStart\Desktop\lehre\asyd\dev\Ada_Drivers_Library-master\boards\MicroBit\obj\zfp_lib_Debug\libada_drivers_library.a(nrf-interrupts.o)
                              C:\Users\JumpStart\Desktop\lehre\asyd\dev\Ada_Drivers_Library-master\boards\MicroBit\obj\zfp_lib_Debug\libada_drivers_library.a(microbit-time.o) (nrf__interrupts__enable)
C:\Users\JumpStart\Desktop\lehre\asyd\dev\Ada_Drivers_Library-master\boards\MicroBit\obj\zfp_lib_Debug\libada_drivers_library.a(nrf-rtc.o)
                              C:\Users\JumpStart\Desktop\lehre\asyd\dev\Ada_Drivers_Library-master\boards\MicroBit\obj\zfp_lib_Debug\libada_drivers_library.a(nrf-device.o) (nrf__rtc__real_time_counterIP)
C:\Users\JumpStart\Desktop\lehre\asyd\dev\Ada_Drivers_Library-master\boards\MicroBit\obj\zfp_lib_Debug\libada_drivers_library.a(nrf-spi_master.o)
                              C:\Users\JumpStart\Desktop\lehre\asyd\dev\Ada_Drivers_Library-master\boards\MicroBit\obj\zfp_lib_Debug\libada_drivers_library.a(nrf-device.o) (nrf__spi_master__spi_masterIP)
C:\Users\JumpStart\Desktop\lehre\asyd\dev\Ada_Drivers_Library-master\boards\MicroBit\obj\zfp_lib_Debug\libada_drivers_library.a(nrf-tasks.o)
                              C:\Users\JumpStart\Desktop\lehre\asyd\dev\Ada_Drivers_Library-master\boards\MicroBit\obj\zfp_lib_Debug\libada_drivers_library.a(nrf-clock.o) (nrf__tasks__trigger)
C:\Users\JumpStart\Desktop\lehre\asyd\dev\Ada_Drivers_Library-master\boards\MicroBit\obj\zfp_lib_Debug\libada_drivers_library.a(nrf-timers.o)
                              C:\Users\JumpStart\Desktop\lehre\asyd\dev\Ada_Drivers_Library-master\boards\MicroBit\obj\zfp_lib_Debug\libada_drivers_library.a(nrf-device.o) (nrf__timers__timerIP)
C:\Users\JumpStart\Desktop\lehre\asyd\dev\Ada_Drivers_Library-master\boards\MicroBit\obj\zfp_lib_Debug\libada_drivers_library.a(nrf-twi.o)
                              C:\Users\JumpStart\Desktop\lehre\asyd\dev\Ada_Drivers_Library-master\boards\MicroBit\obj\zfp_lib_Debug\libada_drivers_library.a(nrf-device.o) (nrf__twi__twi_masterIP)
C:\Users\JumpStart\Desktop\lehre\asyd\dev\Ada_Drivers_Library-master\boards\MicroBit\obj\zfp_lib_Debug\libada_drivers_library.a(nrf-uart.o)
                              C:\Users\JumpStart\Desktop\lehre\asyd\dev\Ada_Drivers_Library-master\boards\MicroBit\obj\zfp_lib_Debug\libada_drivers_library.a(nrf-device.o) (nrf__uart__uart_deviceIP)
C:\Users\JumpStart\Desktop\lehre\asyd\dev\Ada_Drivers_Library-master\boards\MicroBit\obj\zfp_lib_Debug\libada_drivers_library.a(nrf_svd-gpio.o)
                              C:\Users\JumpStart\Desktop\lehre\asyd\dev\Ada_Drivers_Library-master\boards\MicroBit\obj\zfp_lib_Debug\libada_drivers_library.a(nrf-gpio.o) (nrf_svd__gpio__pin_cnf_pull_fieldRP)
C:\Users\JumpStart\Desktop\lehre\asyd\dev\Ada_Drivers_Library-master\boards\MicroBit\obj\zfp_lib_Debug\libada_drivers_library.a(nrf_svd-twi.o)
                              C:\Users\JumpStart\Desktop\lehre\asyd\dev\Ada_Drivers_Library-master\boards\MicroBit\obj\zfp_lib_Debug\libada_drivers_library.a(nrf-twi.o) (nrf_svd__twi__errorsrc_registerIP)
C:\Users\JumpStart\Desktop\lehre\asyd\dev\Ada_Drivers_Library-master\boards\MicroBit\obj\zfp_lib_Debug\libada_drivers_library.a(hal-gpio.o)
                              C:\Users\JumpStart\Desktop\lehre\asyd\dev\Ada_Drivers_Library-master\boards\MicroBit\obj\zfp_lib_Debug\libada_drivers_library.a(nrf-gpio.o) (hal__gpio__gpio_pointT)
C:\Users\JumpStart\Desktop\lehre\asyd\dev\Ada_Drivers_Library-master\boards\MicroBit\obj\zfp_lib_Debug\libada_drivers_library.a(hal-i2c.o)
                              C:\Users\JumpStart\Desktop\lehre\asyd\dev\Ada_Drivers_Library-master\boards\MicroBit\obj\zfp_lib_Debug\libada_drivers_library.a(nrf-twi.o) (hal__i2c__i2c_portT)
C:\Users\JumpStart\Desktop\lehre\asyd\dev\Ada_Drivers_Library-master\boards\MicroBit\obj\zfp_lib_Debug\libada_drivers_library.a(hal-spi.o)
                              C:\Users\JumpStart\Desktop\lehre\asyd\dev\Ada_Drivers_Library-master\boards\MicroBit\obj\zfp_lib_Debug\libada_drivers_library.a(nrf-spi_master.o) (hal__spi__spi_portT)
C:\Users\JumpStart\Desktop\lehre\asyd\dev\Ada_Drivers_Library-master\boards\MicroBit\obj\zfp_lib_Debug\libada_drivers_library.a(hal-time.o)
                              C:\Users\JumpStart\Desktop\lehre\asyd\dev\Ada_Drivers_Library-master\boards\MicroBit\obj\zfp_lib_Debug\libada_drivers_library.a(microbit-time.o) (hal__time__delaysT)
C:\Users\JumpStart\Desktop\lehre\asyd\dev\Ada_Drivers_Library-master\boards\MicroBit\obj\zfp_lib_Debug\libada_drivers_library.a(hal-uart.o)
                              C:\Users\JumpStart\Desktop\lehre\asyd\dev\Ada_Drivers_Library-master\boards\MicroBit\obj\zfp_lib_Debug\libada_drivers_library.a(nrf-uart.o) (hal__uart__uart_portT)
C:\gnat\2020-arm-elf\arm-eabi\lib\gnat\zfp-cortex-m4f\adalib\libgnat.a(a-elchha.o)
                              C:\Users\JumpStart\Desktop\lehre\asyd\dev\Ada_Drivers_Library-master\boards\MicroBit\obj\zfp_lib_Debug\libada_drivers_library.a(cortex_m-nvic.o) (__gnat_last_chance_handler)
C:\gnat\2020-arm-elf\arm-eabi\lib\gnat\zfp-cortex-m4f\adalib\libgnat.a(breakpoint_handler-cortexm.o)
                              C:\Users\JumpStart\Desktop\lehre\asyd\dev\Ada_Drivers_Library-master\boards\MicroBit\obj\zfp_lib_Debug\libada_drivers_library.a(crt0.o) (__gnat_bkpt_trap)
C:\gnat\2020-arm-elf\arm-eabi\lib\gnat\zfp-cortex-m4f\adalib\libgnat.a(g-io.o)
                              C:\gnat\2020-arm-elf\arm-eabi\lib\gnat\zfp-cortex-m4f\adalib\libgnat.a(a-elchha.o) (gnat__io__put__2)
C:\gnat\2020-arm-elf\arm-eabi\lib\gnat\zfp-cortex-m4f\adalib\libgnat.a(s-assert.o)
                              C:\Users\JumpStart\Desktop\lehre\asyd\dev\Ada_Drivers_Library-master\boards\MicroBit\obj\zfp_lib_Debug\libada_drivers_library.a(microbit-display.o) (system__assertions__raise_assert_failure)
C:\gnat\2020-arm-elf\arm-eabi\lib\gnat\zfp-cortex-m4f\adalib\libgnat.a(s-macres.o)
                              C:\Users\JumpStart\Desktop\lehre\asyd\dev\Ada_Drivers_Library-master\boards\MicroBit\obj\zfp_lib_Debug\libada_drivers_library.a(crt0.o) (_exit)
C:\gnat\2020-arm-elf\arm-eabi\lib\gnat\zfp-cortex-m4f\adalib\libgnat.a(s-memcop.o)
                              C:\gnat\2020-arm-elf\arm-eabi\lib\gnat\zfp-cortex-m4f\adalib\libgnat.a(s-assert.o) (memcpy)
C:\gnat\2020-arm-elf\arm-eabi\lib\gnat\zfp-cortex-m4f\adalib\libgnat.a(s-memmov.o)
                              C:\Users\JumpStart\Desktop\lehre\asyd\dev\Ada_Drivers_Library-master\boards\MicroBit\obj\zfp_lib_Debug\libada_drivers_library.a(microbit-display.o) (memmove)
C:\gnat\2020-arm-elf\arm-eabi\lib\gnat\zfp-cortex-m4f\adalib\libgnat.a(s-memset.o)
                              C:\Users\JumpStart\Desktop\lehre\asyd\dev\Ada_Drivers_Library-master\boards\MicroBit\obj\zfp_lib_Debug\libada_drivers_library.a(microbit-display.o) (memset)
C:\gnat\2020-arm-elf\arm-eabi\lib\gnat\zfp-cortex-m4f\adalib\libgnat.a(s-secsta.o)
                              b__main.o (system__secondary_stack__ss_stackIP)
C:\gnat\2020-arm-elf\arm-eabi\lib\gnat\zfp-cortex-m4f\adalib\libgnat.a(s-sssita.o)
                              C:\gnat\2020-arm-elf\arm-eabi\lib\gnat\zfp-cortex-m4f\adalib\libgnat.a(s-secsta.o) (__gnat_get_secondary_stack)
C:\gnat\2020-arm-elf\arm-eabi\lib\gnat\zfp-cortex-m4f\adalib\libgnat.a(s-textio.o)
                              C:\gnat\2020-arm-elf\arm-eabi\lib\gnat\zfp-cortex-m4f\adalib\libgnat.a(g-io.o) (system__text_io__initialize)
C:\gnat\2020-arm-elf\arm-eabi\lib\gnat\zfp-cortex-m4f\adalib\libgnat.a(a-except.o)
                              C:\gnat\2020-arm-elf\arm-eabi\lib\gnat\zfp-cortex-m4f\adalib\libgnat.a(s-assert.o) (ada__exceptions__empty_c_string___UNC)
C:\gnat\2020-arm-elf\arm-eabi\lib\gnat\zfp-cortex-m4f\adalib\libgnat.a(s-semiho.o)
                              C:\gnat\2020-arm-elf\arm-eabi\lib\gnat\zfp-cortex-m4f\adalib\libgnat.a(s-textio.o) (system__semihosting__put)

Discarded input sections

 .text          0x0000000000000000        0x0 main.o
 .data          0x0000000000000000        0x0 main.o
 .bss           0x0000000000000000        0x0 main.o
 .text          0x0000000000000000        0x0 b__main.o
 .data          0x0000000000000000        0x0 b__main.o
 .bss           0x0000000000000000        0x0 b__main.o
 .data.ada_main_E
                0x0000000000000000        0x2 b__main.o
 .rodata.__gnat_version
                0x0000000000000000       0x2b b__main.o
 .text          0x0000000000000000        0x0 C:\Users\JumpStart\Desktop\lehre\asyd\dev\Ada_Drivers_Library-master\boards\MicroBit\obj\zfp_lib_Debug\libada_drivers_library.a(cortex_m-nvic.o)
 .data          0x0000000000000000        0x0 C:\Users\JumpStart\Desktop\lehre\asyd\dev\Ada_Drivers_Library-master\boards\MicroBit\obj\zfp_lib_Debug\libada_drivers_library.a(cortex_m-nvic.o)
 .bss           0x0000000000000000        0x0 C:\Users\JumpStart\Desktop\lehre\asyd\dev\Ada_Drivers_Library-master\boards\MicroBit\obj\zfp_lib_Debug\libada_drivers_library.a(cortex_m-nvic.o)
 .text.cortex_m__nvic__uint8sIP
                0x0000000000000000       0x14 C:\Users\JumpStart\Desktop\lehre\asyd\dev\Ada_Drivers_Library-master\boards\MicroBit\obj\zfp_lib_Debug\libada_drivers_library.a(cortex_m-nvic.o)
 .text.cortex_m__nvic__wordsIP
                0x0000000000000000       0x14 C:\Users\JumpStart\Desktop\lehre\asyd\dev\Ada_Drivers_Library-master\boards\MicroBit\obj\zfp_lib_Debug\libada_drivers_library.a(cortex_m-nvic.o)
 .text.cortex_m__nvic__system_control_blockIP
                0x0000000000000000       0x14 C:\Users\JumpStart\Desktop\lehre\asyd\dev\Ada_Drivers_Library-master\boards\MicroBit\obj\zfp_lib_Debug\libada_drivers_library.a(cortex_m-nvic.o)
 .text.cortex_m__nvic__nested_vectored_interrupt_controllerIP
                0x0000000000000000       0x14 C:\Users\JumpStart\Desktop\lehre\asyd\dev\Ada_Drivers_Library-master\boards\MicroBit\obj\zfp_lib_Debug\libada_drivers_library.a(cortex_m-nvic.o)
 .text.cortex_m__nvic__priority_grouping
                0x0000000000000000       0x20 C:\Users\JumpStart\Desktop\lehre\asyd\dev\Ada_Drivers_Library-master\boards\MicroBit\obj\zfp_lib_Debug\libada_drivers_library.a(cortex_m-nvic.o)
 .text.cortex_m__nvic__set_priority_grouping
                0x0000000000000000       0x48 C:\Users\JumpStart\Desktop\lehre\asyd\dev\Ada_Drivers_Library-master\boards\MicroBit\obj\zfp_lib_Debug\libada_drivers_library.a(cortex_m-nvic.o)
 .text.cortex_m__nvic__set_priority
                0x0000000000000000       0x50 C:\Users\JumpStart\Desktop\lehre\asyd\dev\Ada_Drivers_Library-master\boards\MicroBit\obj\zfp_lib_Debug\libada_drivers_library.a(cortex_m-nvic.o)
 .text.cortex_m__nvic__encoded_priority
                0x0000000000000000       0xd4 C:\Users\JumpStart\Desktop\lehre\asyd\dev\Ada_Drivers_Library-master\boards\MicroBit\obj\zfp_lib_Debug\libada_drivers_library.a(cortex_m-nvic.o)
 .text.cortex_m__nvic__set_priority__2
                0x0000000000000000       0x2c C:\Users\JumpStart\Desktop\lehre\asyd\dev\Ada_Drivers_Library-master\boards\MicroBit\obj\zfp_lib_Debug\libada_drivers_library.a(cortex_m-nvic.o)
 .text.cortex_m__nvic__disable_interrupt
                0x0000000000000000       0x68 C:\Users\JumpStart\Desktop\lehre\asyd\dev\Ada_Drivers_Library-master\boards\MicroBit\obj\zfp_lib_Debug\libada_drivers_library.a(cortex_m-nvic.o)
 .text.cortex_m__nvic__active
                0x0000000000000000       0x7c C:\Users\JumpStart\Desktop\lehre\asyd\dev\Ada_Drivers_Library-master\boards\MicroBit\obj\zfp_lib_Debug\libada_drivers_library.a(cortex_m-nvic.o)
 .text.cortex_m__nvic__pending
                0x0000000000000000       0x7c C:\Users\JumpStart\Desktop\lehre\asyd\dev\Ada_Drivers_Library-master\boards\MicroBit\obj\zfp_lib_Debug\libada_drivers_library.a(cortex_m-nvic.o)
 .text.cortex_m__nvic__set_pending
                0x0000000000000000       0x68 C:\Users\JumpStart\Desktop\lehre\asyd\dev\Ada_Drivers_Library-master\boards\MicroBit\obj\zfp_lib_Debug\libada_drivers_library.a(cortex_m-nvic.o)
 .text.cortex_m__nvic__clear_pending
                0x0000000000000000       0x68 C:\Users\JumpStart\Desktop\lehre\asyd\dev\Ada_Drivers_Library-master\boards\MicroBit\obj\zfp_lib_Debug\libada_drivers_library.a(cortex_m-nvic.o)
 .text.cortex_m__nvic__reset_system
                0x0000000000000000       0x28 C:\Users\JumpStart\Desktop\lehre\asyd\dev\Ada_Drivers_Library-master\boards\MicroBit\obj\zfp_lib_Debug\libada_drivers_library.a(cortex_m-nvic.o)
 .rodata.cortex_m__nvic__priority_group_0
                0x0000000000000000        0x4 C:\Users\JumpStart\Desktop\lehre\asyd\dev\Ada_Drivers_Library-master\boards\MicroBit\obj\zfp_lib_Debug\libada_drivers_library.a(cortex_m-nvic.o)
 .rodata.cortex_m__nvic__priority_group_1
                0x0000000000000000        0x4 C:\Users\JumpStart\Desktop\lehre\asyd\dev\Ada_Drivers_Library-master\boards\MicroBit\obj\zfp_lib_Debug\libada_drivers_library.a(cortex_m-nvic.o)
 .rodata.cortex_m__nvic__priority_group_2
                0x0000000000000000        0x4 C:\Users\JumpStart\Desktop\lehre\asyd\dev\Ada_Drivers_Library-master\boards\MicroBit\obj\zfp_lib_Debug\libada_drivers_library.a(cortex_m-nvic.o)
 .rodata.cortex_m__nvic__priority_group_3
                0x0000000000000000        0x4 C:\Users\JumpStart\Desktop\lehre\asyd\dev\Ada_Drivers_Library-master\boards\MicroBit\obj\zfp_lib_Debug\libada_drivers_library.a(cortex_m-nvic.o)
 .rodata.cortex_m__nvic__priority_group_4
                0x0000000000000000        0x4 C:\Users\JumpStart\Desktop\lehre\asyd\dev\Ada_Drivers_Library-master\boards\MicroBit\obj\zfp_lib_Debug\libada_drivers_library.a(cortex_m-nvic.o)
 .rodata.cortex_m__nvic__scb_aircr_prigroup_mask
                0x0000000000000000        0x4 C:\Users\JumpStart\Desktop\lehre\asyd\dev\Ada_Drivers_Library-master\boards\MicroBit\obj\zfp_lib_Debug\libada_drivers_library.a(cortex_m-nvic.o)
 .rodata.cortex_m__nvic__scb_aircr_vectkey_mask
                0x0000000000000000        0x4 C:\Users\JumpStart\Desktop\lehre\asyd\dev\Ada_Drivers_Library-master\boards\MicroBit\obj\zfp_lib_Debug\libada_drivers_library.a(cortex_m-nvic.o)
 .rodata.cortex_m__nvic__scb_aircr_sysresetreq_mask
                0x0000000000000000        0x4 C:\Users\JumpStart\Desktop\lehre\asyd\dev\Ada_Drivers_Library-master\boards\MicroBit\obj\zfp_lib_Debug\libada_drivers_library.a(cortex_m-nvic.o)
 .rodata.cortex_m__nvic__scb
                0x0000000000000000        0x4 C:\Users\JumpStart\Desktop\lehre\asyd\dev\Ada_Drivers_Library-master\boards\MicroBit\obj\zfp_lib_Debug\libada_drivers_library.a(cortex_m-nvic.o)
 .rodata.cortex_m__nvic__nvic
                0x0000000000000000        0x4 C:\Users\JumpStart\Desktop\lehre\asyd\dev\Ada_Drivers_Library-master\boards\MicroBit\obj\zfp_lib_Debug\libada_drivers_library.a(cortex_m-nvic.o)
 .data          0x0000000000000000        0x0 C:\Users\JumpStart\Desktop\lehre\asyd\dev\Ada_Drivers_Library-master\boards\MicroBit\obj\zfp_lib_Debug\libada_drivers_library.a(crt0.o)
 .bss           0x0000000000000000        0x0 C:\Users\JumpStart\Desktop\lehre\asyd\dev\Ada_Drivers_Library-master\boards\MicroBit\obj\zfp_lib_Debug\libada_drivers_library.a(crt0.o)
 .text          0x0000000000000000        0x0 C:\Users\JumpStart\Desktop\lehre\asyd\dev\Ada_Drivers_Library-master\boards\MicroBit\obj\zfp_lib_Debug\libada_drivers_library.a(memory_barriers.o)
 .data          0x0000000000000000        0x0 C:\Users\JumpStart\Desktop\lehre\asyd\dev\Ada_Drivers_Library-master\boards\MicroBit\obj\zfp_lib_Debug\libada_drivers_library.a(memory_barriers.o)
 .bss           0x0000000000000000        0x0 C:\Users\JumpStart\Desktop\lehre\asyd\dev\Ada_Drivers_Library-master\boards\MicroBit\obj\zfp_lib_Debug\libada_drivers_library.a(memory_barriers.o)
 .text.memory_barriers__data_synchronization_barrier
                0x0000000000000000       0x10 C:\Users\JumpStart\Desktop\lehre\asyd\dev\Ada_Drivers_Library-master\boards\MicroBit\obj\zfp_lib_Debug\libada_drivers_library.a(memory_barriers.o)
 .text          0x0000000000000000        0x0 C:\Users\JumpStart\Desktop\lehre\asyd\dev\Ada_Drivers_Library-master\boards\MicroBit\obj\zfp_lib_Debug\libada_drivers_library.a(microbit-console.o)
 .data          0x0000000000000000        0x0 C:\Users\JumpStart\Desktop\lehre\asyd\dev\Ada_Drivers_Library-master\boards\MicroBit\obj\zfp_lib_Debug\libada_drivers_library.a(microbit-console.o)
 .bss           0x0000000000000000        0x0 C:\Users\JumpStart\Desktop\lehre\asyd\dev\Ada_Drivers_Library-master\boards\MicroBit\obj\zfp_lib_Debug\libada_drivers_library.a(microbit-console.o)
 .text.microbit__console__get
                0x0000000000000000       0x38 C:\Users\JumpStart\Desktop\lehre\asyd\dev\Ada_Drivers_Library-master\boards\MicroBit\obj\zfp_lib_Debug\libada_drivers_library.a(microbit-console.o)
 .text.microbit__console__put
                0x0000000000000000       0x38 C:\Users\JumpStart\Desktop\lehre\asyd\dev\Ada_Drivers_Library-master\boards\MicroBit\obj\zfp_lib_Debug\libada_drivers_library.a(microbit-console.o)
 .text.microbit__console__put__2
                0x0000000000000000       0xd4 C:\Users\JumpStart\Desktop\lehre\asyd\dev\Ada_Drivers_Library-master\boards\MicroBit\obj\zfp_lib_Debug\libada_drivers_library.a(microbit-console.o)
 .text.microbit__console__new_line
                0x0000000000000000       0x1c C:\Users\JumpStart\Desktop\lehre\asyd\dev\Ada_Drivers_Library-master\boards\MicroBit\obj\zfp_lib_Debug\libada_drivers_library.a(microbit-console.o)
 .rodata.microbit__console__uart
                0x0000000000000000        0x4 C:\Users\JumpStart\Desktop\lehre\asyd\dev\Ada_Drivers_Library-master\boards\MicroBit\obj\zfp_lib_Debug\libada_drivers_library.a(microbit-console.o)
 .text          0x0000000000000000        0x0 C:\Users\JumpStart\Desktop\lehre\asyd\dev\Ada_Drivers_Library-master\boards\MicroBit\obj\zfp_lib_Debug\libada_drivers_library.a(microbit-display.o)
 .data          0x0000000000000000        0x0 C:\Users\JumpStart\Desktop\lehre\asyd\dev\Ada_Drivers_Library-master\boards\MicroBit\obj\zfp_lib_Debug\libada_drivers_library.a(microbit-display.o)
 .bss           0x0000000000000000        0x0 C:\Users\JumpStart\Desktop\lehre\asyd\dev\Ada_Drivers_Library-master\boards\MicroBit\obj\zfp_lib_Debug\libada_drivers_library.a(microbit-display.o)
 .text.microbit__display__led_pointIP
                0x0000000000000000       0x14 C:\Users\JumpStart\Desktop\lehre\asyd\dev\Ada_Drivers_Library-master\boards\MicroBit\obj\zfp_lib_Debug\libada_drivers_library.a(microbit-display.o)
 .text.microbit__display__TglyphBIP
                0x0000000000000000       0x14 C:\Users\JumpStart\Desktop\lehre\asyd\dev\Ada_Drivers_Library-master\boards\MicroBit\obj\zfp_lib_Debug\libada_drivers_library.a(microbit-display.o)
 .text.microbit__display__set
                0x0000000000000000       0x4c C:\Users\JumpStart\Desktop\lehre\asyd\dev\Ada_Drivers_Library-master\boards\MicroBit\obj\zfp_lib_Debug\libada_drivers_library.a(microbit-display.o)
 .text.microbit__display__clear
                0x0000000000000000       0x4c C:\Users\JumpStart\Desktop\lehre\asyd\dev\Ada_Drivers_Library-master\boards\MicroBit\obj\zfp_lib_Debug\libada_drivers_library.a(microbit-display.o)
 .text.microbit__display__clear__2
                0x0000000000000000       0x18 C:\Users\JumpStart\Desktop\lehre\asyd\dev\Ada_Drivers_Library-master\boards\MicroBit\obj\zfp_lib_Debug\libada_drivers_library.a(microbit-display.o)
 .text.microbit__display__display
                0x0000000000000000       0x1c C:\Users\JumpStart\Desktop\lehre\asyd\dev\Ada_Drivers_Library-master\boards\MicroBit\obj\zfp_lib_Debug\libada_drivers_library.a(microbit-display.o)
 .text.microbit__display__set_animation_step_duration
                0x0000000000000000       0x1c C:\Users\JumpStart\Desktop\lehre\asyd\dev\Ada_Drivers_Library-master\boards\MicroBit\obj\zfp_lib_Debug\libada_drivers_library.a(microbit-display.o)
 .text.microbit__display__animation_in_progress
                0x0000000000000000       0x24 C:\Users\JumpStart\Desktop\lehre\asyd\dev\Ada_Drivers_Library-master\boards\MicroBit\obj\zfp_lib_Debug\libada_drivers_library.a(microbit-display.o)
 .text          0x0000000000000000        0x0 C:\Users\JumpStart\Desktop\lehre\asyd\dev\Ada_Drivers_Library-master\boards\MicroBit\obj\zfp_lib_Debug\libada_drivers_library.a(microbit-time.o)
 .data          0x0000000000000000        0x0 C:\Users\JumpStart\Desktop\lehre\asyd\dev\Ada_Drivers_Library-master\boards\MicroBit\obj\zfp_lib_Debug\libada_drivers_library.a(microbit-time.o)
 .bss           0x0000000000000000        0x0 C:\Users\JumpStart\Desktop\lehre\asyd\dev\Ada_Drivers_Library-master\boards\MicroBit\obj\zfp_lib_Debug\libada_drivers_library.a(microbit-time.o)
 .text.microbit__time__tick_period
                0x0000000000000000       0x1c C:\Users\JumpStart\Desktop\lehre\asyd\dev\Ada_Drivers_Library-master\boards\MicroBit\obj\zfp_lib_Debug\libada_drivers_library.a(microbit-time.o)
 .text.microbit__time__tick_unsubscribe___postconditions.6372
                0x0000000000000000       0x50 C:\Users\JumpStart\Desktop\lehre\asyd\dev\Ada_Drivers_Library-master\boards\MicroBit\obj\zfp_lib_Debug\libada_drivers_library.a(microbit-time.o)
 .text.microbit__time__tick_unsubscribe
                0x0000000000000000       0x94 C:\Users\JumpStart\Desktop\lehre\asyd\dev\Ada_Drivers_Library-master\boards\MicroBit\obj\zfp_lib_Debug\libada_drivers_library.a(microbit-time.o)
 .text.microbit__time__hal_delay
                0x0000000000000000       0x18 C:\Users\JumpStart\Desktop\lehre\asyd\dev\Ada_Drivers_Library-master\boards\MicroBit\obj\zfp_lib_Debug\libada_drivers_library.a(microbit-time.o)
 .rodata.microbit__time__mb_delaysP
                0x0000000000000000        0x4 C:\Users\JumpStart\Desktop\lehre\asyd\dev\Ada_Drivers_Library-master\boards\MicroBit\obj\zfp_lib_Debug\libada_drivers_library.a(microbit-time.o)
 .rodata.microbit__time__mb_delaysY
                0x0000000000000000        0x4 C:\Users\JumpStart\Desktop\lehre\asyd\dev\Ada_Drivers_Library-master\boards\MicroBit\obj\zfp_lib_Debug\libada_drivers_library.a(microbit-time.o)
 .rodata.microbit__time__mb_delaysR19s
                0x0000000000000000        0x4 C:\Users\JumpStart\Desktop\lehre\asyd\dev\Ada_Drivers_Library-master\boards\MicroBit\obj\zfp_lib_Debug\libada_drivers_library.a(microbit-time.o)
 .rodata.microbit__time__period_ms
                0x0000000000000000        0x8 C:\Users\JumpStart\Desktop\lehre\asyd\dev\Ada_Drivers_Library-master\boards\MicroBit\obj\zfp_lib_Debug\libada_drivers_library.a(microbit-time.o)
 .text          0x0000000000000000        0x0 C:\Users\JumpStart\Desktop\lehre\asyd\dev\Ada_Drivers_Library-master\boards\MicroBit\obj\zfp_lib_Debug\libada_drivers_library.a(nrf-clock.o)
 .data          0x0000000000000000        0x0 C:\Users\JumpStart\Desktop\lehre\asyd\dev\Ada_Drivers_Library-master\boards\MicroBit\obj\zfp_lib_Debug\libada_drivers_library.a(nrf-clock.o)
 .bss           0x0000000000000000        0x0 C:\Users\JumpStart\Desktop\lehre\asyd\dev\Ada_Drivers_Library-master\boards\MicroBit\obj\zfp_lib_Debug\libada_drivers_library.a(nrf-clock.o)
 .text.nrf__clock__set_high_freq_external_frequency
                0x0000000000000000       0x18 C:\Users\JumpStart\Desktop\lehre\asyd\dev\Ada_Drivers_Library-master\boards\MicroBit\obj\zfp_lib_Debug\libada_drivers_library.a(nrf-clock.o)
 .text.nrf__clock__set_high_freq_source
                0x0000000000000000       0x4c C:\Users\JumpStart\Desktop\lehre\asyd\dev\Ada_Drivers_Library-master\boards\MicroBit\obj\zfp_lib_Debug\libada_drivers_library.a(nrf-clock.o)
 .text.nrf__clock__high_freq_source
                0x0000000000000000       0x34 C:\Users\JumpStart\Desktop\lehre\asyd\dev\Ada_Drivers_Library-master\boards\MicroBit\obj\zfp_lib_Debug\libada_drivers_library.a(nrf-clock.o)
 .text.nrf__clock__high_freq_running
                0x0000000000000000       0x30 C:\Users\JumpStart\Desktop\lehre\asyd\dev\Ada_Drivers_Library-master\boards\MicroBit\obj\zfp_lib_Debug\libada_drivers_library.a(nrf-clock.o)
 .text.nrf__clock__start_high_freq
                0x0000000000000000       0x10 C:\Users\JumpStart\Desktop\lehre\asyd\dev\Ada_Drivers_Library-master\boards\MicroBit\obj\zfp_lib_Debug\libada_drivers_library.a(nrf-clock.o)
 .text.nrf__clock__stop_high_freq
                0x0000000000000000       0x10 C:\Users\JumpStart\Desktop\lehre\asyd\dev\Ada_Drivers_Library-master\boards\MicroBit\obj\zfp_lib_Debug\libada_drivers_library.a(nrf-clock.o)
 .text.nrf__clock__low_freq_source
                0x0000000000000000       0x40 C:\Users\JumpStart\Desktop\lehre\asyd\dev\Ada_Drivers_Library-master\boards\MicroBit\obj\zfp_lib_Debug\libada_drivers_library.a(nrf-clock.o)
 .text.nrf__clock__stop_low_freq
                0x0000000000000000       0x10 C:\Users\JumpStart\Desktop\lehre\asyd\dev\Ada_Drivers_Library-master\boards\MicroBit\obj\zfp_lib_Debug\libada_drivers_library.a(nrf-clock.o)
 .text          0x0000000000000000        0x0 C:\Users\JumpStart\Desktop\lehre\asyd\dev\Ada_Drivers_Library-master\boards\MicroBit\obj\zfp_lib_Debug\libada_drivers_library.a(nrf-device.o)
 .data          0x0000000000000000        0x0 C:\Users\JumpStart\Desktop\lehre\asyd\dev\Ada_Drivers_Library-master\boards\MicroBit\obj\zfp_lib_Debug\libada_drivers_library.a(nrf-device.o)
 .bss           0x0000000000000000        0x0 C:\Users\JumpStart\Desktop\lehre\asyd\dev\Ada_Drivers_Library-master\boards\MicroBit\obj\zfp_lib_Debug\libada_drivers_library.a(nrf-device.o)
 .rodata.nrf__device__undocumented_reg_fe0
                0x0000000000000000        0x4 C:\Users\JumpStart\Desktop\lehre\asyd\dev\Ada_Drivers_Library-master\boards\MicroBit\obj\zfp_lib_Debug\libada_drivers_library.a(nrf-device.o)
 .rodata.nrf__device__undocumented_reg_fe4
                0x0000000000000000        0x4 C:\Users\JumpStart\Desktop\lehre\asyd\dev\Ada_Drivers_Library-master\boards\MicroBit\obj\zfp_lib_Debug\libada_drivers_library.a(nrf-device.o)
 .rodata.nrf__device__undocumented_reg_fe8
                0x0000000000000000        0x4 C:\Users\JumpStart\Desktop\lehre\asyd\dev\Ada_Drivers_Library-master\boards\MicroBit\obj\zfp_lib_Debug\libada_drivers_library.a(nrf-device.o)
 .rodata.nrf__device__e12_undocumented_comp_reg_540
                0x0000000000000000        0x4 C:\Users\JumpStart\Desktop\lehre\asyd\dev\Ada_Drivers_Library-master\boards\MicroBit\obj\zfp_lib_Debug\libada_drivers_library.a(nrf-device.o)
 .rodata.nrf__device__e12_undocumented_ficr_reg_324
                0x0000000000000000        0x4 C:\Users\JumpStart\Desktop\lehre\asyd\dev\Ada_Drivers_Library-master\boards\MicroBit\obj\zfp_lib_Debug\libada_drivers_library.a(nrf-device.o)
 .rodata.nrf__device__e16_undocumented_reg_074
                0x0000000000000000        0x4 C:\Users\JumpStart\Desktop\lehre\asyd\dev\Ada_Drivers_Library-master\boards\MicroBit\obj\zfp_lib_Debug\libada_drivers_library.a(nrf-device.o)
 .rodata.nrf__device__e31_undocumented_clock_reg_53c
                0x0000000000000000        0x4 C:\Users\JumpStart\Desktop\lehre\asyd\dev\Ada_Drivers_Library-master\boards\MicroBit\obj\zfp_lib_Debug\libada_drivers_library.a(nrf-device.o)
 .rodata.nrf__device__e31_undocumented_ficr_reg_244
                0x0000000000000000        0x4 C:\Users\JumpStart\Desktop\lehre\asyd\dev\Ada_Drivers_Library-master\boards\MicroBit\obj\zfp_lib_Debug\libada_drivers_library.a(nrf-device.o)
 .rodata.nrf__device__e37_undocumented_reg_5a0
                0x0000000000000000        0x4 C:\Users\JumpStart\Desktop\lehre\asyd\dev\Ada_Drivers_Library-master\boards\MicroBit\obj\zfp_lib_Debug\libada_drivers_library.a(nrf-device.o)
 .rodata.nrf__device__e57_undocumented_nfct_reg_610
                0x0000000000000000        0x4 C:\Users\JumpStart\Desktop\lehre\asyd\dev\Ada_Drivers_Library-master\boards\MicroBit\obj\zfp_lib_Debug\libada_drivers_library.a(nrf-device.o)
 .rodata.nrf__device__e57_undocumented_nfct_reg_614
                0x0000000000000000        0x4 C:\Users\JumpStart\Desktop\lehre\asyd\dev\Ada_Drivers_Library-master\boards\MicroBit\obj\zfp_lib_Debug\libada_drivers_library.a(nrf-device.o)
 .rodata.nrf__device__e57_undocumented_nfct_reg_618
                0x0000000000000000        0x4 C:\Users\JumpStart\Desktop\lehre\asyd\dev\Ada_Drivers_Library-master\boards\MicroBit\obj\zfp_lib_Debug\libada_drivers_library.a(nrf-device.o)
 .rodata.nrf__device__e57_undocumented_nfct_reg_688
                0x0000000000000000        0x4 C:\Users\JumpStart\Desktop\lehre\asyd\dev\Ada_Drivers_Library-master\boards\MicroBit\obj\zfp_lib_Debug\libada_drivers_library.a(nrf-device.o)
 .rodata.nrf__device__e108_undocumented_reg_ee4
                0x0000000000000000        0x4 C:\Users\JumpStart\Desktop\lehre\asyd\dev\Ada_Drivers_Library-master\boards\MicroBit\obj\zfp_lib_Debug\libada_drivers_library.a(nrf-device.o)
 .rodata.nrf__device__e108_undocumented_ficr_reg_258
                0x0000000000000000        0x4 C:\Users\JumpStart\Desktop\lehre\asyd\dev\Ada_Drivers_Library-master\boards\MicroBit\obj\zfp_lib_Debug\libada_drivers_library.a(nrf-device.o)
 .rodata.nrf__device__e182_undocumented_reg_73c
                0x0000000000000000        0x4 C:\Users\JumpStart\Desktop\lehre\asyd\dev\Ada_Drivers_Library-master\boards\MicroBit\obj\zfp_lib_Debug\libada_drivers_library.a(nrf-device.o)
 .text          0x0000000000000000        0x0 C:\Users\JumpStart\Desktop\lehre\asyd\dev\Ada_Drivers_Library-master\boards\MicroBit\obj\zfp_lib_Debug\libada_drivers_library.a(nrf-events.o)
 .data          0x0000000000000000        0x0 C:\Users\JumpStart\Desktop\lehre\asyd\dev\Ada_Drivers_Library-master\boards\MicroBit\obj\zfp_lib_Debug\libada_drivers_library.a(nrf-events.o)
 .bss           0x0000000000000000        0x0 C:\Users\JumpStart\Desktop\lehre\asyd\dev\Ada_Drivers_Library-master\boards\MicroBit\obj\zfp_lib_Debug\libada_drivers_library.a(nrf-events.o)
 .text.nrf__events__triggered
                0x0000000000000000       0x3c C:\Users\JumpStart\Desktop\lehre\asyd\dev\Ada_Drivers_Library-master\boards\MicroBit\obj\zfp_lib_Debug\libada_drivers_library.a(nrf-events.o)
 .text.nrf__events__disable_interrupt
                0x0000000000000000       0x70 C:\Users\JumpStart\Desktop\lehre\asyd\dev\Ada_Drivers_Library-master\boards\MicroBit\obj\zfp_lib_Debug\libada_drivers_library.a(nrf-events.o)
 .text.nrf__events__get_address
                0x0000000000000000       0x18 C:\Users\JumpStart\Desktop\lehre\asyd\dev\Ada_Drivers_Library-master\boards\MicroBit\obj\zfp_lib_Debug\libada_drivers_library.a(nrf-events.o)
 .text.nrf__events__get_address__2
                0x0000000000000000       0x18 C:\Users\JumpStart\Desktop\lehre\asyd\dev\Ada_Drivers_Library-master\boards\MicroBit\obj\zfp_lib_Debug\libada_drivers_library.a(nrf-events.o)
 .rodata.nrf__events__power_pofwarn
                0x0000000000000000        0x4 C:\Users\JumpStart\Desktop\lehre\asyd\dev\Ada_Drivers_Library-master\boards\MicroBit\obj\zfp_lib_Debug\libada_drivers_library.a(nrf-events.o)
 .rodata.nrf__events__clock_hfclkstarted
                0x0000000000000000        0x4 C:\Users\JumpStart\Desktop\lehre\asyd\dev\Ada_Drivers_Library-master\boards\MicroBit\obj\zfp_lib_Debug\libada_drivers_library.a(nrf-events.o)
 .rodata.nrf__events__clock_lfclkstarted
                0x0000000000000000        0x4 C:\Users\JumpStart\Desktop\lehre\asyd\dev\Ada_Drivers_Library-master\boards\MicroBit\obj\zfp_lib_Debug\libada_drivers_library.a(nrf-events.o)
 .rodata.nrf__events__clock_done
                0x0000000000000000        0x4 C:\Users\JumpStart\Desktop\lehre\asyd\dev\Ada_Drivers_Library-master\boards\MicroBit\obj\zfp_lib_Debug\libada_drivers_library.a(nrf-events.o)
 .rodata.nrf__events__clock_ctto
                0x0000000000000000        0x4 C:\Users\JumpStart\Desktop\lehre\asyd\dev\Ada_Drivers_Library-master\boards\MicroBit\obj\zfp_lib_Debug\libada_drivers_library.a(nrf-events.o)
 .rodata.nrf__events__gpiote_in_0
                0x0000000000000000        0x4 C:\Users\JumpStart\Desktop\lehre\asyd\dev\Ada_Drivers_Library-master\boards\MicroBit\obj\zfp_lib_Debug\libada_drivers_library.a(nrf-events.o)
 .rodata.nrf__events__gpiote_in_1
                0x0000000000000000        0x4 C:\Users\JumpStart\Desktop\lehre\asyd\dev\Ada_Drivers_Library-master\boards\MicroBit\obj\zfp_lib_Debug\libada_drivers_library.a(nrf-events.o)
 .rodata.nrf__events__gpiote_in_2
                0x0000000000000000        0x4 C:\Users\JumpStart\Desktop\lehre\asyd\dev\Ada_Drivers_Library-master\boards\MicroBit\obj\zfp_lib_Debug\libada_drivers_library.a(nrf-events.o)
 .rodata.nrf__events__gpiote_in_3
                0x0000000000000000        0x4 C:\Users\JumpStart\Desktop\lehre\asyd\dev\Ada_Drivers_Library-master\boards\MicroBit\obj\zfp_lib_Debug\libada_drivers_library.a(nrf-events.o)
 .rodata.nrf__events__gpiote_port
                0x0000000000000000        0x4 C:\Users\JumpStart\Desktop\lehre\asyd\dev\Ada_Drivers_Library-master\boards\MicroBit\obj\zfp_lib_Debug\libada_drivers_library.a(nrf-events.o)
 .rodata.nrf__events__radio_ready
                0x0000000000000000        0x4 C:\Users\JumpStart\Desktop\lehre\asyd\dev\Ada_Drivers_Library-master\boards\MicroBit\obj\zfp_lib_Debug\libada_drivers_library.a(nrf-events.o)
 .rodata.nrf__events__radio_address
                0x0000000000000000        0x4 C:\Users\JumpStart\Desktop\lehre\asyd\dev\Ada_Drivers_Library-master\boards\MicroBit\obj\zfp_lib_Debug\libada_drivers_library.a(nrf-events.o)
 .rodata.nrf__events__radio_payload
                0x0000000000000000        0x4 C:\Users\JumpStart\Desktop\lehre\asyd\dev\Ada_Drivers_Library-master\boards\MicroBit\obj\zfp_lib_Debug\libada_drivers_library.a(nrf-events.o)
 .rodata.nrf__events__radio_end
                0x0000000000000000        0x4 C:\Users\JumpStart\Desktop\lehre\asyd\dev\Ada_Drivers_Library-master\boards\MicroBit\obj\zfp_lib_Debug\libada_drivers_library.a(nrf-events.o)
 .rodata.nrf__events__radio_disabled
                0x0000000000000000        0x4 C:\Users\JumpStart\Desktop\lehre\asyd\dev\Ada_Drivers_Library-master\boards\MicroBit\obj\zfp_lib_Debug\libada_drivers_library.a(nrf-events.o)
 .rodata.nrf__events__radio_devmatch
                0x0000000000000000        0x4 C:\Users\JumpStart\Desktop\lehre\asyd\dev\Ada_Drivers_Library-master\boards\MicroBit\obj\zfp_lib_Debug\libada_drivers_library.a(nrf-events.o)
 .rodata.nrf__events__radio_devmiss
                0x0000000000000000        0x4 C:\Users\JumpStart\Desktop\lehre\asyd\dev\Ada_Drivers_Library-master\boards\MicroBit\obj\zfp_lib_Debug\libada_drivers_library.a(nrf-events.o)
 .rodata.nrf__events__radio_rssiend
                0x0000000000000000        0x4 C:\Users\JumpStart\Desktop\lehre\asyd\dev\Ada_Drivers_Library-master\boards\MicroBit\obj\zfp_lib_Debug\libada_drivers_library.a(nrf-events.o)
 .rodata.nrf__events__radio_bcmatch
                0x0000000000000000        0x4 C:\Users\JumpStart\Desktop\lehre\asyd\dev\Ada_Drivers_Library-master\boards\MicroBit\obj\zfp_lib_Debug\libada_drivers_library.a(nrf-events.o)
 .rodata.nrf__events__timer_0_compare_0
                0x0000000000000000        0x4 C:\Users\JumpStart\Desktop\lehre\asyd\dev\Ada_Drivers_Library-master\boards\MicroBit\obj\zfp_lib_Debug\libada_drivers_library.a(nrf-events.o)
 .rodata.nrf__events__timer_0_compare_1
                0x0000000000000000        0x4 C:\Users\JumpStart\Desktop\lehre\asyd\dev\Ada_Drivers_Library-master\boards\MicroBit\obj\zfp_lib_Debug\libada_drivers_library.a(nrf-events.o)
 .rodata.nrf__events__timer_0_compare_2
                0x0000000000000000        0x4 C:\Users\JumpStart\Desktop\lehre\asyd\dev\Ada_Drivers_Library-master\boards\MicroBit\obj\zfp_lib_Debug\libada_drivers_library.a(nrf-events.o)
 .rodata.nrf__events__timer_0_compare_3
                0x0000000000000000        0x4 C:\Users\JumpStart\Desktop\lehre\asyd\dev\Ada_Drivers_Library-master\boards\MicroBit\obj\zfp_lib_Debug\libada_drivers_library.a(nrf-events.o)
 .rodata.nrf__events__timer_1_compare_0
                0x0000000000000000        0x4 C:\Users\JumpStart\Desktop\lehre\asyd\dev\Ada_Drivers_Library-master\boards\MicroBit\obj\zfp_lib_Debug\libada_drivers_library.a(nrf-events.o)
 .rodata.nrf__events__timer_1_compare_1
                0x0000000000000000        0x4 C:\Users\JumpStart\Desktop\lehre\asyd\dev\Ada_Drivers_Library-master\boards\MicroBit\obj\zfp_lib_Debug\libada_drivers_library.a(nrf-events.o)
 .rodata.nrf__events__timer_1_compare_2
                0x0000000000000000        0x4 C:\Users\JumpStart\Desktop\lehre\asyd\dev\Ada_Drivers_Library-master\boards\MicroBit\obj\zfp_lib_Debug\libada_drivers_library.a(nrf-events.o)
 .rodata.nrf__events__timer_1_compare_3
                0x0000000000000000        0x4 C:\Users\JumpStart\Desktop\lehre\asyd\dev\Ada_Drivers_Library-master\boards\MicroBit\obj\zfp_lib_Debug\libada_drivers_library.a(nrf-events.o)
 .rodata.nrf__events__timer_2_compare_0
                0x0000000000000000        0x4 C:\Users\JumpStart\Desktop\lehre\asyd\dev\Ada_Drivers_Library-master\boards\MicroBit\obj\zfp_lib_Debug\libada_drivers_library.a(nrf-events.o)
 .rodata.nrf__events__timer_2_compare_1
                0x0000000000000000        0x4 C:\Users\JumpStart\Desktop\lehre\asyd\dev\Ada_Drivers_Library-master\boards\MicroBit\obj\zfp_lib_Debug\libada_drivers_library.a(nrf-events.o)
 .rodata.nrf__events__timer_2_compare_2
                0x0000000000000000        0x4 C:\Users\JumpStart\Desktop\lehre\asyd\dev\Ada_Drivers_Library-master\boards\MicroBit\obj\zfp_lib_Debug\libada_drivers_library.a(nrf-events.o)
 .rodata.nrf__events__timer_2_compare_3
                0x0000000000000000        0x4 C:\Users\JumpStart\Desktop\lehre\asyd\dev\Ada_Drivers_Library-master\boards\MicroBit\obj\zfp_lib_Debug\libada_drivers_library.a(nrf-events.o)
 .rodata.nrf__events__rtc_0_tick
                0x0000000000000000        0x4 C:\Users\JumpStart\Desktop\lehre\asyd\dev\Ada_Drivers_Library-master\boards\MicroBit\obj\zfp_lib_Debug\libada_drivers_library.a(nrf-events.o)
 .rodata.nrf__events__rtc_0_overflw
                0x0000000000000000        0x4 C:\Users\JumpStart\Desktop\lehre\asyd\dev\Ada_Drivers_Library-master\boards\MicroBit\obj\zfp_lib_Debug\libada_drivers_library.a(nrf-events.o)
 .rodata.nrf__events__rtc_0_compare_0
                0x0000000000000000        0x4 C:\Users\JumpStart\Desktop\lehre\asyd\dev\Ada_Drivers_Library-master\boards\MicroBit\obj\zfp_lib_Debug\libada_drivers_library.a(nrf-events.o)
 .rodata.nrf__events__rtc_0_compare_1
                0x0000000000000000        0x4 C:\Users\JumpStart\Desktop\lehre\asyd\dev\Ada_Drivers_Library-master\boards\MicroBit\obj\zfp_lib_Debug\libada_drivers_library.a(nrf-events.o)
 .rodata.nrf__events__rtc_0_compare_2
                0x0000000000000000        0x4 C:\Users\JumpStart\Desktop\lehre\asyd\dev\Ada_Drivers_Library-master\boards\MicroBit\obj\zfp_lib_Debug\libada_drivers_library.a(nrf-events.o)
 .rodata.nrf__events__rtc_0_compare_3
                0x0000000000000000        0x4 C:\Users\JumpStart\Desktop\lehre\asyd\dev\Ada_Drivers_Library-master\boards\MicroBit\obj\zfp_lib_Debug\libada_drivers_library.a(nrf-events.o)
 .rodata.nrf__events__rtc_1_tick
                0x0000000000000000        0x4 C:\Users\JumpStart\Desktop\lehre\asyd\dev\Ada_Drivers_Library-master\boards\MicroBit\obj\zfp_lib_Debug\libada_drivers_library.a(nrf-events.o)
 .rodata.nrf__events__rtc_1_overflw
                0x0000000000000000        0x4 C:\Users\JumpStart\Desktop\lehre\asyd\dev\Ada_Drivers_Library-master\boards\MicroBit\obj\zfp_lib_Debug\libada_drivers_library.a(nrf-events.o)
 .rodata.nrf__events__rtc_1_compare_0
                0x0000000000000000        0x4 C:\Users\JumpStart\Desktop\lehre\asyd\dev\Ada_Drivers_Library-master\boards\MicroBit\obj\zfp_lib_Debug\libada_drivers_library.a(nrf-events.o)
 .rodata.nrf__events__rtc_1_compare_1
                0x0000000000000000        0x4 C:\Users\JumpStart\Desktop\lehre\asyd\dev\Ada_Drivers_Library-master\boards\MicroBit\obj\zfp_lib_Debug\libada_drivers_library.a(nrf-events.o)
 .rodata.nrf__events__rtc_1_compare_2
                0x0000000000000000        0x4 C:\Users\JumpStart\Desktop\lehre\asyd\dev\Ada_Drivers_Library-master\boards\MicroBit\obj\zfp_lib_Debug\libada_drivers_library.a(nrf-events.o)
 .rodata.nrf__events__rtc_1_compare_3
                0x0000000000000000        0x4 C:\Users\JumpStart\Desktop\lehre\asyd\dev\Ada_Drivers_Library-master\boards\MicroBit\obj\zfp_lib_Debug\libada_drivers_library.a(nrf-events.o)
 .rodata.nrf__events__watchdog_timeout
                0x0000000000000000        0x4 C:\Users\JumpStart\Desktop\lehre\asyd\dev\Ada_Drivers_Library-master\boards\MicroBit\obj\zfp_lib_Debug\libada_drivers_library.a(nrf-events.o)
 .rodata.nrf__events__rng_valrdy
                0x0000000000000000        0x4 C:\Users\JumpStart\Desktop\lehre\asyd\dev\Ada_Drivers_Library-master\boards\MicroBit\obj\zfp_lib_Debug\libada_drivers_library.a(nrf-events.o)
 .rodata.nrf__events__temperature_datardy
                0x0000000000000000        0x4 C:\Users\JumpStart\Desktop\lehre\asyd\dev\Ada_Drivers_Library-master\boards\MicroBit\obj\zfp_lib_Debug\libada_drivers_library.a(nrf-events.o)
 .rodata.nrf__events__ecb_end
                0x0000000000000000        0x4 C:\Users\JumpStart\Desktop\lehre\asyd\dev\Ada_Drivers_Library-master\boards\MicroBit\obj\zfp_lib_Debug\libada_drivers_library.a(nrf-events.o)
 .rodata.nrf__events__ecb_error
                0x0000000000000000        0x4 C:\Users\JumpStart\Desktop\lehre\asyd\dev\Ada_Drivers_Library-master\boards\MicroBit\obj\zfp_lib_Debug\libada_drivers_library.a(nrf-events.o)
 .rodata.nrf__events__ccm_ksgen_end
                0x0000000000000000        0x4 C:\Users\JumpStart\Desktop\lehre\asyd\dev\Ada_Drivers_Library-master\boards\MicroBit\obj\zfp_lib_Debug\libada_drivers_library.a(nrf-events.o)
 .rodata.nrf__events__ccm_crypt_end
                0x0000000000000000        0x4 C:\Users\JumpStart\Desktop\lehre\asyd\dev\Ada_Drivers_Library-master\boards\MicroBit\obj\zfp_lib_Debug\libada_drivers_library.a(nrf-events.o)
 .rodata.nrf__events__ccm_error
                0x0000000000000000        0x4 C:\Users\JumpStart\Desktop\lehre\asyd\dev\Ada_Drivers_Library-master\boards\MicroBit\obj\zfp_lib_Debug\libada_drivers_library.a(nrf-events.o)
 .rodata.nrf__events__aar_end
                0x0000000000000000        0x4 C:\Users\JumpStart\Desktop\lehre\asyd\dev\Ada_Drivers_Library-master\boards\MicroBit\obj\zfp_lib_Debug\libada_drivers_library.a(nrf-events.o)
 .rodata.nrf__events__aar_resolved
                0x0000000000000000        0x4 C:\Users\JumpStart\Desktop\lehre\asyd\dev\Ada_Drivers_Library-master\boards\MicroBit\obj\zfp_lib_Debug\libada_drivers_library.a(nrf-events.o)
 .rodata.nrf__events__aar_notresolved
                0x0000000000000000        0x4 C:\Users\JumpStart\Desktop\lehre\asyd\dev\Ada_Drivers_Library-master\boards\MicroBit\obj\zfp_lib_Debug\libada_drivers_library.a(nrf-events.o)
 .rodata.nrf__events__spi_0_ready
                0x0000000000000000        0x4 C:\Users\JumpStart\Desktop\lehre\asyd\dev\Ada_Drivers_Library-master\boards\MicroBit\obj\zfp_lib_Debug\libada_drivers_library.a(nrf-events.o)
 .rodata.nrf__events__spi_1_ready
                0x0000000000000000        0x4 C:\Users\JumpStart\Desktop\lehre\asyd\dev\Ada_Drivers_Library-master\boards\MicroBit\obj\zfp_lib_Debug\libada_drivers_library.a(nrf-events.o)
 .rodata.nrf__events__twi_0_stopped
                0x0000000000000000        0x4 C:\Users\JumpStart\Desktop\lehre\asyd\dev\Ada_Drivers_Library-master\boards\MicroBit\obj\zfp_lib_Debug\libada_drivers_library.a(nrf-events.o)
 .rodata.nrf__events__twi_0_rxdrdy
                0x0000000000000000        0x4 C:\Users\JumpStart\Desktop\lehre\asyd\dev\Ada_Drivers_Library-master\boards\MicroBit\obj\zfp_lib_Debug\libada_drivers_library.a(nrf-events.o)
 .rodata.nrf__events__twi_0_txdent
                0x0000000000000000        0x4 C:\Users\JumpStart\Desktop\lehre\asyd\dev\Ada_Drivers_Library-master\boards\MicroBit\obj\zfp_lib_Debug\libada_drivers_library.a(nrf-events.o)
 .rodata.nrf__events__twi_0_erro
                0x0000000000000000        0x4 C:\Users\JumpStart\Desktop\lehre\asyd\dev\Ada_Drivers_Library-master\boards\MicroBit\obj\zfp_lib_Debug\libada_drivers_library.a(nrf-events.o)
 .rodata.nrf__events__twi_0_bb
                0x0000000000000000        0x4 C:\Users\JumpStart\Desktop\lehre\asyd\dev\Ada_Drivers_Library-master\boards\MicroBit\obj\zfp_lib_Debug\libada_drivers_library.a(nrf-events.o)
 .rodata.nrf__events__twi_0_suspended
                0x0000000000000000        0x4 C:\Users\JumpStart\Desktop\lehre\asyd\dev\Ada_Drivers_Library-master\boards\MicroBit\obj\zfp_lib_Debug\libada_drivers_library.a(nrf-events.o)
 .rodata.nrf__events__twi_1_stopped
                0x0000000000000000        0x4 C:\Users\JumpStart\Desktop\lehre\asyd\dev\Ada_Drivers_Library-master\boards\MicroBit\obj\zfp_lib_Debug\libada_drivers_library.a(nrf-events.o)
 .rodata.nrf__events__twi_1_rxdrdy
                0x0000000000000000        0x4 C:\Users\JumpStart\Desktop\lehre\asyd\dev\Ada_Drivers_Library-master\boards\MicroBit\obj\zfp_lib_Debug\libada_drivers_library.a(nrf-events.o)
 .rodata.nrf__events__twi_1_txdent
                0x0000000000000000        0x4 C:\Users\JumpStart\Desktop\lehre\asyd\dev\Ada_Drivers_Library-master\boards\MicroBit\obj\zfp_lib_Debug\libada_drivers_library.a(nrf-events.o)
 .rodata.nrf__events__twi_1_erro
                0x0000000000000000        0x4 C:\Users\JumpStart\Desktop\lehre\asyd\dev\Ada_Drivers_Library-master\boards\MicroBit\obj\zfp_lib_Debug\libada_drivers_library.a(nrf-events.o)
 .rodata.nrf__events__twi_1_bb
                0x0000000000000000        0x4 C:\Users\JumpStart\Desktop\lehre\asyd\dev\Ada_Drivers_Library-master\boards\MicroBit\obj\zfp_lib_Debug\libada_drivers_library.a(nrf-events.o)
 .rodata.nrf__events__twi_1_suspended
                0x0000000000000000        0x4 C:\Users\JumpStart\Desktop\lehre\asyd\dev\Ada_Drivers_Library-master\boards\MicroBit\obj\zfp_lib_Debug\libada_drivers_library.a(nrf-events.o)
 .rodata.nrf__events__uart_rxdrdy
                0x0000000000000000        0x4 C:\Users\JumpStart\Desktop\lehre\asyd\dev\Ada_Drivers_Library-master\boards\MicroBit\obj\zfp_lib_Debug\libada_drivers_library.a(nrf-events.o)
 .rodata.nrf__events__uart_txdrdy
                0x0000000000000000        0x4 C:\Users\JumpStart\Desktop\lehre\asyd\dev\Ada_Drivers_Library-master\boards\MicroBit\obj\zfp_lib_Debug\libada_drivers_library.a(nrf-events.o)
 .rodata.nrf__events__uart_error
                0x0000000000000000        0x4 C:\Users\JumpStart\Desktop\lehre\asyd\dev\Ada_Drivers_Library-master\boards\MicroBit\obj\zfp_lib_Debug\libada_drivers_library.a(nrf-events.o)
 .rodata.nrf__events__qdec_samplerdy
                0x0000000000000000        0x4 C:\Users\JumpStart\Desktop\lehre\asyd\dev\Ada_Drivers_Library-master\boards\MicroBit\obj\zfp_lib_Debug\libada_drivers_library.a(nrf-events.o)
 .rodata.nrf__events__qdec_reportrdy
                0x0000000000000000        0x4 C:\Users\JumpStart\Desktop\lehre\asyd\dev\Ada_Drivers_Library-master\boards\MicroBit\obj\zfp_lib_Debug\libada_drivers_library.a(nrf-events.o)
 .rodata.nrf__events__qdec_accof
                0x0000000000000000        0x4 C:\Users\JumpStart\Desktop\lehre\asyd\dev\Ada_Drivers_Library-master\boards\MicroBit\obj\zfp_lib_Debug\libada_drivers_library.a(nrf-events.o)
 .rodata.nrf__events__adc_end
                0x0000000000000000        0x4 C:\Users\JumpStart\Desktop\lehre\asyd\dev\Ada_Drivers_Library-master\boards\MicroBit\obj\zfp_lib_Debug\libada_drivers_library.a(nrf-events.o)
 .text          0x0000000000000000        0x0 C:\Users\JumpStart\Desktop\lehre\asyd\dev\Ada_Drivers_Library-master\boards\MicroBit\obj\zfp_lib_Debug\libada_drivers_library.a(nrf-gpio.o)
 .data          0x0000000000000000        0x0 C:\Users\JumpStart\Desktop\lehre\asyd\dev\Ada_Drivers_Library-master\boards\MicroBit\obj\zfp_lib_Debug\libada_drivers_library.a(nrf-gpio.o)
 .bss           0x0000000000000000        0x0 C:\Users\JumpStart\Desktop\lehre\asyd\dev\Ada_Drivers_Library-master\boards\MicroBit\obj\zfp_lib_Debug\libada_drivers_library.a(nrf-gpio.o)
 .text.nrf__gpio__gpio_pointIP
                0x0000000000000000       0x28 C:\Users\JumpStart\Desktop\lehre\asyd\dev\Ada_Drivers_Library-master\boards\MicroBit\obj\zfp_lib_Debug\libada_drivers_library.a(nrf-gpio.o)
 .rodata.nrf__gpio__gpio_pointP
                0x0000000000000000        0x4 C:\Users\JumpStart\Desktop\lehre\asyd\dev\Ada_Drivers_Library-master\boards\MicroBit\obj\zfp_lib_Debug\libada_drivers_library.a(nrf-gpio.o)
 .rodata.nrf__gpio__gpio_pointY
                0x0000000000000000        0x4 C:\Users\JumpStart\Desktop\lehre\asyd\dev\Ada_Drivers_Library-master\boards\MicroBit\obj\zfp_lib_Debug\libada_drivers_library.a(nrf-gpio.o)
 .rodata.nrf__gpio__gpio_pointR15s
                0x0000000000000000        0x4 C:\Users\JumpStart\Desktop\lehre\asyd\dev\Ada_Drivers_Library-master\boards\MicroBit\obj\zfp_lib_Debug\libada_drivers_library.a(nrf-gpio.o)
 .text          0x0000000000000000        0x0 C:\Users\JumpStart\Desktop\lehre\asyd\dev\Ada_Drivers_Library-master\boards\MicroBit\obj\zfp_lib_Debug\libada_drivers_library.a(nrf-interrupts.o)
 .data          0x0000000000000000        0x0 C:\Users\JumpStart\Desktop\lehre\asyd\dev\Ada_Drivers_Library-master\boards\MicroBit\obj\zfp_lib_Debug\libada_drivers_library.a(nrf-interrupts.o)
 .bss           0x0000000000000000        0x0 C:\Users\JumpStart\Desktop\lehre\asyd\dev\Ada_Drivers_Library-master\boards\MicroBit\obj\zfp_lib_Debug\libada_drivers_library.a(nrf-interrupts.o)
 .text.nrf__interrupts__set_priority
                0x0000000000000000       0x1c C:\Users\JumpStart\Desktop\lehre\asyd\dev\Ada_Drivers_Library-master\boards\MicroBit\obj\zfp_lib_Debug\libada_drivers_library.a(nrf-interrupts.o)
 .text.nrf__interrupts__disable
                0x0000000000000000       0x18 C:\Users\JumpStart\Desktop\lehre\asyd\dev\Ada_Drivers_Library-master\boards\MicroBit\obj\zfp_lib_Debug\libada_drivers_library.a(nrf-interrupts.o)
 .text.nrf__interrupts__pending
                0x0000000000000000       0x20 C:\Users\JumpStart\Desktop\lehre\asyd\dev\Ada_Drivers_Library-master\boards\MicroBit\obj\zfp_lib_Debug\libada_drivers_library.a(nrf-interrupts.o)
 .text          0x0000000000000000        0x0 C:\Users\JumpStart\Desktop\lehre\asyd\dev\Ada_Drivers_Library-master\boards\MicroBit\obj\zfp_lib_Debug\libada_drivers_library.a(nrf-rtc.o)
 .data          0x0000000000000000        0x0 C:\Users\JumpStart\Desktop\lehre\asyd\dev\Ada_Drivers_Library-master\boards\MicroBit\obj\zfp_lib_Debug\libada_drivers_library.a(nrf-rtc.o)
 .bss           0x0000000000000000        0x0 C:\Users\JumpStart\Desktop\lehre\asyd\dev\Ada_Drivers_Library-master\boards\MicroBit\obj\zfp_lib_Debug\libada_drivers_library.a(nrf-rtc.o)
 .text.nrf__rtc__counter
                0x0000000000000000       0x24 C:\Users\JumpStart\Desktop\lehre\asyd\dev\Ada_Drivers_Library-master\boards\MicroBit\obj\zfp_lib_Debug\libada_drivers_library.a(nrf-rtc.o)
 .text.nrf__rtc__event
                0x0000000000000000       0x7c C:\Users\JumpStart\Desktop\lehre\asyd\dev\Ada_Drivers_Library-master\boards\MicroBit\obj\zfp_lib_Debug\libada_drivers_library.a(nrf-rtc.o)
 .text.nrf__rtc__disable_event
                0x0000000000000000      0x15c C:\Users\JumpStart\Desktop\lehre\asyd\dev\Ada_Drivers_Library-master\boards\MicroBit\obj\zfp_lib_Debug\libada_drivers_library.a(nrf-rtc.o)
 .text          0x0000000000000000        0x0 C:\Users\JumpStart\Desktop\lehre\asyd\dev\Ada_Drivers_Library-master\boards\MicroBit\obj\zfp_lib_Debug\libada_drivers_library.a(nrf-spi_master.o)
 .data          0x0000000000000000        0x0 C:\Users\JumpStart\Desktop\lehre\asyd\dev\Ada_Drivers_Library-master\boards\MicroBit\obj\zfp_lib_Debug\libada_drivers_library.a(nrf-spi_master.o)
 .bss           0x0000000000000000        0x0 C:\Users\JumpStart\Desktop\lehre\asyd\dev\Ada_Drivers_Library-master\boards\MicroBit\obj\zfp_lib_Debug\libada_drivers_library.a(nrf-spi_master.o)
 .rodata.nrf__spi_master__spi_masterP
                0x0000000000000000        0x4 C:\Users\JumpStart\Desktop\lehre\asyd\dev\Ada_Drivers_Library-master\boards\MicroBit\obj\zfp_lib_Debug\libada_drivers_library.a(nrf-spi_master.o)
 .rodata.nrf__spi_master__spi_masterY
                0x0000000000000000        0x4 C:\Users\JumpStart\Desktop\lehre\asyd\dev\Ada_Drivers_Library-master\boards\MicroBit\obj\zfp_lib_Debug\libada_drivers_library.a(nrf-spi_master.o)
 .rodata.nrf__spi_master__spi_masterR28s
                0x0000000000000000        0x4 C:\Users\JumpStart\Desktop\lehre\asyd\dev\Ada_Drivers_Library-master\boards\MicroBit\obj\zfp_lib_Debug\libada_drivers_library.a(nrf-spi_master.o)
 .text          0x0000000000000000        0x0 C:\Users\JumpStart\Desktop\lehre\asyd\dev\Ada_Drivers_Library-master\boards\MicroBit\obj\zfp_lib_Debug\libada_drivers_library.a(nrf-tasks.o)
 .data          0x0000000000000000        0x0 C:\Users\JumpStart\Desktop\lehre\asyd\dev\Ada_Drivers_Library-master\boards\MicroBit\obj\zfp_lib_Debug\libada_drivers_library.a(nrf-tasks.o)
 .bss           0x0000000000000000        0x0 C:\Users\JumpStart\Desktop\lehre\asyd\dev\Ada_Drivers_Library-master\boards\MicroBit\obj\zfp_lib_Debug\libada_drivers_library.a(nrf-tasks.o)
 .text.nrf__tasks__get_address
                0x0000000000000000       0x18 C:\Users\JumpStart\Desktop\lehre\asyd\dev\Ada_Drivers_Library-master\boards\MicroBit\obj\zfp_lib_Debug\libada_drivers_library.a(nrf-tasks.o)
 .text.nrf__tasks__get_address__2
                0x0000000000000000       0x18 C:\Users\JumpStart\Desktop\lehre\asyd\dev\Ada_Drivers_Library-master\boards\MicroBit\obj\zfp_lib_Debug\libada_drivers_library.a(nrf-tasks.o)
 .rodata.nrf__tasks__power_constlat
                0x0000000000000000        0x4 C:\Users\JumpStart\Desktop\lehre\asyd\dev\Ada_Drivers_Library-master\boards\MicroBit\obj\zfp_lib_Debug\libada_drivers_library.a(nrf-tasks.o)
 .rodata.nrf__tasks__power_lowpwr
                0x0000000000000000        0x4 C:\Users\JumpStart\Desktop\lehre\asyd\dev\Ada_Drivers_Library-master\boards\MicroBit\obj\zfp_lib_Debug\libada_drivers_library.a(nrf-tasks.o)
 .rodata.nrf__tasks__clock_hfclkstart
                0x0000000000000000        0x4 C:\Users\JumpStart\Desktop\lehre\asyd\dev\Ada_Drivers_Library-master\boards\MicroBit\obj\zfp_lib_Debug\libada_drivers_library.a(nrf-tasks.o)
 .rodata.nrf__tasks__clock_hfclkstop
                0x0000000000000000        0x4 C:\Users\JumpStart\Desktop\lehre\asyd\dev\Ada_Drivers_Library-master\boards\MicroBit\obj\zfp_lib_Debug\libada_drivers_library.a(nrf-tasks.o)
 .rodata.nrf__tasks__clock_lfclkstart
                0x0000000000000000        0x4 C:\Users\JumpStart\Desktop\lehre\asyd\dev\Ada_Drivers_Library-master\boards\MicroBit\obj\zfp_lib_Debug\libada_drivers_library.a(nrf-tasks.o)
 .rodata.nrf__tasks__clock_lfclkstop
                0x0000000000000000        0x4 C:\Users\JumpStart\Desktop\lehre\asyd\dev\Ada_Drivers_Library-master\boards\MicroBit\obj\zfp_lib_Debug\libada_drivers_library.a(nrf-tasks.o)
 .rodata.nrf__tasks__clock_cal
                0x0000000000000000        0x4 C:\Users\JumpStart\Desktop\lehre\asyd\dev\Ada_Drivers_Library-master\boards\MicroBit\obj\zfp_lib_Debug\libada_drivers_library.a(nrf-tasks.o)
 .rodata.nrf__tasks__clock_ctstart
                0x0000000000000000        0x4 C:\Users\JumpStart\Desktop\lehre\asyd\dev\Ada_Drivers_Library-master\boards\MicroBit\obj\zfp_lib_Debug\libada_drivers_library.a(nrf-tasks.o)
 .rodata.nrf__tasks__clock_ctstop
                0x0000000000000000        0x4 C:\Users\JumpStart\Desktop\lehre\asyd\dev\Ada_Drivers_Library-master\boards\MicroBit\obj\zfp_lib_Debug\libada_drivers_library.a(nrf-tasks.o)
 .rodata.nrf__tasks__gpiote_out_0
                0x0000000000000000        0x4 C:\Users\JumpStart\Desktop\lehre\asyd\dev\Ada_Drivers_Library-master\boards\MicroBit\obj\zfp_lib_Debug\libada_drivers_library.a(nrf-tasks.o)
 .rodata.nrf__tasks__gpiote_out_1
                0x0000000000000000        0x4 C:\Users\JumpStart\Desktop\lehre\asyd\dev\Ada_Drivers_Library-master\boards\MicroBit\obj\zfp_lib_Debug\libada_drivers_library.a(nrf-tasks.o)
 .rodata.nrf__tasks__gpiote_out_2
                0x0000000000000000        0x4 C:\Users\JumpStart\Desktop\lehre\asyd\dev\Ada_Drivers_Library-master\boards\MicroBit\obj\zfp_lib_Debug\libada_drivers_library.a(nrf-tasks.o)
 .rodata.nrf__tasks__gpiote_out_3
                0x0000000000000000        0x4 C:\Users\JumpStart\Desktop\lehre\asyd\dev\Ada_Drivers_Library-master\boards\MicroBit\obj\zfp_lib_Debug\libada_drivers_library.a(nrf-tasks.o)
 .rodata.nrf__tasks__ppi_chg_0_en
                0x0000000000000000        0x4 C:\Users\JumpStart\Desktop\lehre\asyd\dev\Ada_Drivers_Library-master\boards\MicroBit\obj\zfp_lib_Debug\libada_drivers_library.a(nrf-tasks.o)
 .rodata.nrf__tasks__ppi_chg_0_dis
                0x0000000000000000        0x4 C:\Users\JumpStart\Desktop\lehre\asyd\dev\Ada_Drivers_Library-master\boards\MicroBit\obj\zfp_lib_Debug\libada_drivers_library.a(nrf-tasks.o)
 .rodata.nrf__tasks__ppi_chg_1_en
                0x0000000000000000        0x4 C:\Users\JumpStart\Desktop\lehre\asyd\dev\Ada_Drivers_Library-master\boards\MicroBit\obj\zfp_lib_Debug\libada_drivers_library.a(nrf-tasks.o)
 .rodata.nrf__tasks__ppi_chg_1_dis
                0x0000000000000000        0x4 C:\Users\JumpStart\Desktop\lehre\asyd\dev\Ada_Drivers_Library-master\boards\MicroBit\obj\zfp_lib_Debug\libada_drivers_library.a(nrf-tasks.o)
 .rodata.nrf__tasks__ppi_chg_2_en
                0x0000000000000000        0x4 C:\Users\JumpStart\Desktop\lehre\asyd\dev\Ada_Drivers_Library-master\boards\MicroBit\obj\zfp_lib_Debug\libada_drivers_library.a(nrf-tasks.o)
 .rodata.nrf__tasks__ppi_chg_2_dis
                0x0000000000000000        0x4 C:\Users\JumpStart\Desktop\lehre\asyd\dev\Ada_Drivers_Library-master\boards\MicroBit\obj\zfp_lib_Debug\libada_drivers_library.a(nrf-tasks.o)
 .rodata.nrf__tasks__ppi_chg_3_en
                0x0000000000000000        0x4 C:\Users\JumpStart\Desktop\lehre\asyd\dev\Ada_Drivers_Library-master\boards\MicroBit\obj\zfp_lib_Debug\libada_drivers_library.a(nrf-tasks.o)
 .rodata.nrf__tasks__ppi_chg_3_dis
                0x0000000000000000        0x4 C:\Users\JumpStart\Desktop\lehre\asyd\dev\Ada_Drivers_Library-master\boards\MicroBit\obj\zfp_lib_Debug\libada_drivers_library.a(nrf-tasks.o)
 .rodata.nrf__tasks__radio_txen
                0x0000000000000000        0x4 C:\Users\JumpStart\Desktop\lehre\asyd\dev\Ada_Drivers_Library-master\boards\MicroBit\obj\zfp_lib_Debug\libada_drivers_library.a(nrf-tasks.o)
 .rodata.nrf__tasks__radio_rxen
                0x0000000000000000        0x4 C:\Users\JumpStart\Desktop\lehre\asyd\dev\Ada_Drivers_Library-master\boards\MicroBit\obj\zfp_lib_Debug\libada_drivers_library.a(nrf-tasks.o)
 .rodata.nrf__tasks__radio_start
                0x0000000000000000        0x4 C:\Users\JumpStart\Desktop\lehre\asyd\dev\Ada_Drivers_Library-master\boards\MicroBit\obj\zfp_lib_Debug\libada_drivers_library.a(nrf-tasks.o)
 .rodata.nrf__tasks__radio_stop
                0x0000000000000000        0x4 C:\Users\JumpStart\Desktop\lehre\asyd\dev\Ada_Drivers_Library-master\boards\MicroBit\obj\zfp_lib_Debug\libada_drivers_library.a(nrf-tasks.o)
 .rodata.nrf__tasks__radio_disable
                0x0000000000000000        0x4 C:\Users\JumpStart\Desktop\lehre\asyd\dev\Ada_Drivers_Library-master\boards\MicroBit\obj\zfp_lib_Debug\libada_drivers_library.a(nrf-tasks.o)
 .rodata.nrf__tasks__radio_rssistart
                0x0000000000000000        0x4 C:\Users\JumpStart\Desktop\lehre\asyd\dev\Ada_Drivers_Library-master\boards\MicroBit\obj\zfp_lib_Debug\libada_drivers_library.a(nrf-tasks.o)
 .rodata.nrf__tasks__radio_rssistop
                0x0000000000000000        0x4 C:\Users\JumpStart\Desktop\lehre\asyd\dev\Ada_Drivers_Library-master\boards\MicroBit\obj\zfp_lib_Debug\libada_drivers_library.a(nrf-tasks.o)
 .rodata.nrf__tasks__radio_bcstart
                0x0000000000000000        0x4 C:\Users\JumpStart\Desktop\lehre\asyd\dev\Ada_Drivers_Library-master\boards\MicroBit\obj\zfp_lib_Debug\libada_drivers_library.a(nrf-tasks.o)
 .rodata.nrf__tasks__radio_bcstop
                0x0000000000000000        0x4 C:\Users\JumpStart\Desktop\lehre\asyd\dev\Ada_Drivers_Library-master\boards\MicroBit\obj\zfp_lib_Debug\libada_drivers_library.a(nrf-tasks.o)
 .rodata.nrf__tasks__timer_0_start
                0x0000000000000000        0x4 C:\Users\JumpStart\Desktop\lehre\asyd\dev\Ada_Drivers_Library-master\boards\MicroBit\obj\zfp_lib_Debug\libada_drivers_library.a(nrf-tasks.o)
 .rodata.nrf__tasks__timer_0_stop
                0x0000000000000000        0x4 C:\Users\JumpStart\Desktop\lehre\asyd\dev\Ada_Drivers_Library-master\boards\MicroBit\obj\zfp_lib_Debug\libada_drivers_library.a(nrf-tasks.o)
 .rodata.nrf__tasks__timer_0_count
                0x0000000000000000        0x4 C:\Users\JumpStart\Desktop\lehre\asyd\dev\Ada_Drivers_Library-master\boards\MicroBit\obj\zfp_lib_Debug\libada_drivers_library.a(nrf-tasks.o)
 .rodata.nrf__tasks__timer_0_clear
                0x0000000000000000        0x4 C:\Users\JumpStart\Desktop\lehre\asyd\dev\Ada_Drivers_Library-master\boards\MicroBit\obj\zfp_lib_Debug\libada_drivers_library.a(nrf-tasks.o)
 .rodata.nrf__tasks__timer_0_capture_0
                0x0000000000000000        0x4 C:\Users\JumpStart\Desktop\lehre\asyd\dev\Ada_Drivers_Library-master\boards\MicroBit\obj\zfp_lib_Debug\libada_drivers_library.a(nrf-tasks.o)
 .rodata.nrf__tasks__timer_0_capture_1
                0x0000000000000000        0x4 C:\Users\JumpStart\Desktop\lehre\asyd\dev\Ada_Drivers_Library-master\boards\MicroBit\obj\zfp_lib_Debug\libada_drivers_library.a(nrf-tasks.o)
 .rodata.nrf__tasks__timer_0_capture_2
                0x0000000000000000        0x4 C:\Users\JumpStart\Desktop\lehre\asyd\dev\Ada_Drivers_Library-master\boards\MicroBit\obj\zfp_lib_Debug\libada_drivers_library.a(nrf-tasks.o)
 .rodata.nrf__tasks__timer_0_capture_3
                0x0000000000000000        0x4 C:\Users\JumpStart\Desktop\lehre\asyd\dev\Ada_Drivers_Library-master\boards\MicroBit\obj\zfp_lib_Debug\libada_drivers_library.a(nrf-tasks.o)
 .rodata.nrf__tasks__timer_1_start
                0x0000000000000000        0x4 C:\Users\JumpStart\Desktop\lehre\asyd\dev\Ada_Drivers_Library-master\boards\MicroBit\obj\zfp_lib_Debug\libada_drivers_library.a(nrf-tasks.o)
 .rodata.nrf__tasks__timer_1_stop
                0x0000000000000000        0x4 C:\Users\JumpStart\Desktop\lehre\asyd\dev\Ada_Drivers_Library-master\boards\MicroBit\obj\zfp_lib_Debug\libada_drivers_library.a(nrf-tasks.o)
 .rodata.nrf__tasks__timer_1_count
                0x0000000000000000        0x4 C:\Users\JumpStart\Desktop\lehre\asyd\dev\Ada_Drivers_Library-master\boards\MicroBit\obj\zfp_lib_Debug\libada_drivers_library.a(nrf-tasks.o)
 .rodata.nrf__tasks__timer_1_clear
                0x0000000000000000        0x4 C:\Users\JumpStart\Desktop\lehre\asyd\dev\Ada_Drivers_Library-master\boards\MicroBit\obj\zfp_lib_Debug\libada_drivers_library.a(nrf-tasks.o)
 .rodata.nrf__tasks__timer_1_capture_0
                0x0000000000000000        0x4 C:\Users\JumpStart\Desktop\lehre\asyd\dev\Ada_Drivers_Library-master\boards\MicroBit\obj\zfp_lib_Debug\libada_drivers_library.a(nrf-tasks.o)
 .rodata.nrf__tasks__timer_1_capture_1
                0x0000000000000000        0x4 C:\Users\JumpStart\Desktop\lehre\asyd\dev\Ada_Drivers_Library-master\boards\MicroBit\obj\zfp_lib_Debug\libada_drivers_library.a(nrf-tasks.o)
 .rodata.nrf__tasks__timer_1_capture_2
                0x0000000000000000        0x4 C:\Users\JumpStart\Desktop\lehre\asyd\dev\Ada_Drivers_Library-master\boards\MicroBit\obj\zfp_lib_Debug\libada_drivers_library.a(nrf-tasks.o)
 .rodata.nrf__tasks__timer_1_capture_3
                0x0000000000000000        0x4 C:\Users\JumpStart\Desktop\lehre\asyd\dev\Ada_Drivers_Library-master\boards\MicroBit\obj\zfp_lib_Debug\libada_drivers_library.a(nrf-tasks.o)
 .rodata.nrf__tasks__timer_2_start
                0x0000000000000000        0x4 C:\Users\JumpStart\Desktop\lehre\asyd\dev\Ada_Drivers_Library-master\boards\MicroBit\obj\zfp_lib_Debug\libada_drivers_library.a(nrf-tasks.o)
 .rodata.nrf__tasks__timer_2_stop
                0x0000000000000000        0x4 C:\Users\JumpStart\Desktop\lehre\asyd\dev\Ada_Drivers_Library-master\boards\MicroBit\obj\zfp_lib_Debug\libada_drivers_library.a(nrf-tasks.o)
 .rodata.nrf__tasks__timer_2_count
                0x0000000000000000        0x4 C:\Users\JumpStart\Desktop\lehre\asyd\dev\Ada_Drivers_Library-master\boards\MicroBit\obj\zfp_lib_Debug\libada_drivers_library.a(nrf-tasks.o)
 .rodata.nrf__tasks__timer_2_clear
                0x0000000000000000        0x4 C:\Users\JumpStart\Desktop\lehre\asyd\dev\Ada_Drivers_Library-master\boards\MicroBit\obj\zfp_lib_Debug\libada_drivers_library.a(nrf-tasks.o)
 .rodata.nrf__tasks__timer_2_capture_0
                0x0000000000000000        0x4 C:\Users\JumpStart\Desktop\lehre\asyd\dev\Ada_Drivers_Library-master\boards\MicroBit\obj\zfp_lib_Debug\libada_drivers_library.a(nrf-tasks.o)
 .rodata.nrf__tasks__timer_2_capture_1
                0x0000000000000000        0x4 C:\Users\JumpStart\Desktop\lehre\asyd\dev\Ada_Drivers_Library-master\boards\MicroBit\obj\zfp_lib_Debug\libada_drivers_library.a(nrf-tasks.o)
 .rodata.nrf__tasks__timer_2_capture_2
                0x0000000000000000        0x4 C:\Users\JumpStart\Desktop\lehre\asyd\dev\Ada_Drivers_Library-master\boards\MicroBit\obj\zfp_lib_Debug\libada_drivers_library.a(nrf-tasks.o)
 .rodata.nrf__tasks__timer_2_capture_3
                0x0000000000000000        0x4 C:\Users\JumpStart\Desktop\lehre\asyd\dev\Ada_Drivers_Library-master\boards\MicroBit\obj\zfp_lib_Debug\libada_drivers_library.a(nrf-tasks.o)
 .rodata.nrf__tasks__rtc_0_start
                0x0000000000000000        0x4 C:\Users\JumpStart\Desktop\lehre\asyd\dev\Ada_Drivers_Library-master\boards\MicroBit\obj\zfp_lib_Debug\libada_drivers_library.a(nrf-tasks.o)
 .rodata.nrf__tasks__rtc_0_stop
                0x0000000000000000        0x4 C:\Users\JumpStart\Desktop\lehre\asyd\dev\Ada_Drivers_Library-master\boards\MicroBit\obj\zfp_lib_Debug\libada_drivers_library.a(nrf-tasks.o)
 .rodata.nrf__tasks__rtc_0_clear
                0x0000000000000000        0x4 C:\Users\JumpStart\Desktop\lehre\asyd\dev\Ada_Drivers_Library-master\boards\MicroBit\obj\zfp_lib_Debug\libada_drivers_library.a(nrf-tasks.o)
 .rodata.nrf__tasks__rtc_0_trigovrflw
                0x0000000000000000        0x4 C:\Users\JumpStart\Desktop\lehre\asyd\dev\Ada_Drivers_Library-master\boards\MicroBit\obj\zfp_lib_Debug\libada_drivers_library.a(nrf-tasks.o)
 .rodata.nrf__tasks__rtc_1_start
                0x0000000000000000        0x4 C:\Users\JumpStart\Desktop\lehre\asyd\dev\Ada_Drivers_Library-master\boards\MicroBit\obj\zfp_lib_Debug\libada_drivers_library.a(nrf-tasks.o)
 .rodata.nrf__tasks__rtc_1_stop
                0x0000000000000000        0x4 C:\Users\JumpStart\Desktop\lehre\asyd\dev\Ada_Drivers_Library-master\boards\MicroBit\obj\zfp_lib_Debug\libada_drivers_library.a(nrf-tasks.o)
 .rodata.nrf__tasks__rtc_1_clear
                0x0000000000000000        0x4 C:\Users\JumpStart\Desktop\lehre\asyd\dev\Ada_Drivers_Library-master\boards\MicroBit\obj\zfp_lib_Debug\libada_drivers_library.a(nrf-tasks.o)
 .rodata.nrf__tasks__rtc_1_trigovrflw
                0x0000000000000000        0x4 C:\Users\JumpStart\Desktop\lehre\asyd\dev\Ada_Drivers_Library-master\boards\MicroBit\obj\zfp_lib_Debug\libada_drivers_library.a(nrf-tasks.o)
 .rodata.nrf__tasks__watchdog_start
                0x0000000000000000        0x4 C:\Users\JumpStart\Desktop\lehre\asyd\dev\Ada_Drivers_Library-master\boards\MicroBit\obj\zfp_lib_Debug\libada_drivers_library.a(nrf-tasks.o)
 .rodata.nrf__tasks__rng_start
                0x0000000000000000        0x4 C:\Users\JumpStart\Desktop\lehre\asyd\dev\Ada_Drivers_Library-master\boards\MicroBit\obj\zfp_lib_Debug\libada_drivers_library.a(nrf-tasks.o)
 .rodata.nrf__tasks__rng_stop
                0x0000000000000000        0x4 C:\Users\JumpStart\Desktop\lehre\asyd\dev\Ada_Drivers_Library-master\boards\MicroBit\obj\zfp_lib_Debug\libada_drivers_library.a(nrf-tasks.o)
 .rodata.nrf__tasks__temperature_start
                0x0000000000000000        0x4 C:\Users\JumpStart\Desktop\lehre\asyd\dev\Ada_Drivers_Library-master\boards\MicroBit\obj\zfp_lib_Debug\libada_drivers_library.a(nrf-tasks.o)
 .rodata.nrf__tasks__temperature_stop
                0x0000000000000000        0x4 C:\Users\JumpStart\Desktop\lehre\asyd\dev\Ada_Drivers_Library-master\boards\MicroBit\obj\zfp_lib_Debug\libada_drivers_library.a(nrf-tasks.o)
 .rodata.nrf__tasks__ecb_start
                0x0000000000000000        0x4 C:\Users\JumpStart\Desktop\lehre\asyd\dev\Ada_Drivers_Library-master\boards\MicroBit\obj\zfp_lib_Debug\libada_drivers_library.a(nrf-tasks.o)
 .rodata.nrf__tasks__ecb_stop
                0x0000000000000000        0x4 C:\Users\JumpStart\Desktop\lehre\asyd\dev\Ada_Drivers_Library-master\boards\MicroBit\obj\zfp_lib_Debug\libada_drivers_library.a(nrf-tasks.o)
 .rodata.nrf__tasks__ccm_ksgen
                0x0000000000000000        0x4 C:\Users\JumpStart\Desktop\lehre\asyd\dev\Ada_Drivers_Library-master\boards\MicroBit\obj\zfp_lib_Debug\libada_drivers_library.a(nrf-tasks.o)
 .rodata.nrf__tasks__ccm_crypt
                0x0000000000000000        0x4 C:\Users\JumpStart\Desktop\lehre\asyd\dev\Ada_Drivers_Library-master\boards\MicroBit\obj\zfp_lib_Debug\libada_drivers_library.a(nrf-tasks.o)
 .rodata.nrf__tasks__ccm_stop
                0x0000000000000000        0x4 C:\Users\JumpStart\Desktop\lehre\asyd\dev\Ada_Drivers_Library-master\boards\MicroBit\obj\zfp_lib_Debug\libada_drivers_library.a(nrf-tasks.o)
 .rodata.nrf__tasks__aar_start
                0x0000000000000000        0x4 C:\Users\JumpStart\Desktop\lehre\asyd\dev\Ada_Drivers_Library-master\boards\MicroBit\obj\zfp_lib_Debug\libada_drivers_library.a(nrf-tasks.o)
 .rodata.nrf__tasks__aar_stop
                0x0000000000000000        0x4 C:\Users\JumpStart\Desktop\lehre\asyd\dev\Ada_Drivers_Library-master\boards\MicroBit\obj\zfp_lib_Debug\libada_drivers_library.a(nrf-tasks.o)
 .rodata.nrf__tasks__twi_0_startrx
                0x0000000000000000        0x4 C:\Users\JumpStart\Desktop\lehre\asyd\dev\Ada_Drivers_Library-master\boards\MicroBit\obj\zfp_lib_Debug\libada_drivers_library.a(nrf-tasks.o)
 .rodata.nrf__tasks__twi_0_starttx
                0x0000000000000000        0x4 C:\Users\JumpStart\Desktop\lehre\asyd\dev\Ada_Drivers_Library-master\boards\MicroBit\obj\zfp_lib_Debug\libada_drivers_library.a(nrf-tasks.o)
 .rodata.nrf__tasks__twi_0_stop
                0x0000000000000000        0x4 C:\Users\JumpStart\Desktop\lehre\asyd\dev\Ada_Drivers_Library-master\boards\MicroBit\obj\zfp_lib_Debug\libada_drivers_library.a(nrf-tasks.o)
 .rodata.nrf__tasks__twi_0_suspend
                0x0000000000000000        0x4 C:\Users\JumpStart\Desktop\lehre\asyd\dev\Ada_Drivers_Library-master\boards\MicroBit\obj\zfp_lib_Debug\libada_drivers_library.a(nrf-tasks.o)
 .rodata.nrf__tasks__twi_0_resume
                0x0000000000000000        0x4 C:\Users\JumpStart\Desktop\lehre\asyd\dev\Ada_Drivers_Library-master\boards\MicroBit\obj\zfp_lib_Debug\libada_drivers_library.a(nrf-tasks.o)
 .rodata.nrf__tasks__twi_1_startrx
                0x0000000000000000        0x4 C:\Users\JumpStart\Desktop\lehre\asyd\dev\Ada_Drivers_Library-master\boards\MicroBit\obj\zfp_lib_Debug\libada_drivers_library.a(nrf-tasks.o)
 .rodata.nrf__tasks__twi_1_starttx
                0x0000000000000000        0x4 C:\Users\JumpStart\Desktop\lehre\asyd\dev\Ada_Drivers_Library-master\boards\MicroBit\obj\zfp_lib_Debug\libada_drivers_library.a(nrf-tasks.o)
 .rodata.nrf__tasks__twi_1_stop
                0x0000000000000000        0x4 C:\Users\JumpStart\Desktop\lehre\asyd\dev\Ada_Drivers_Library-master\boards\MicroBit\obj\zfp_lib_Debug\libada_drivers_library.a(nrf-tasks.o)
 .rodata.nrf__tasks__twi_1_suspend
                0x0000000000000000        0x4 C:\Users\JumpStart\Desktop\lehre\asyd\dev\Ada_Drivers_Library-master\boards\MicroBit\obj\zfp_lib_Debug\libada_drivers_library.a(nrf-tasks.o)
 .rodata.nrf__tasks__twi_1_resume
                0x0000000000000000        0x4 C:\Users\JumpStart\Desktop\lehre\asyd\dev\Ada_Drivers_Library-master\boards\MicroBit\obj\zfp_lib_Debug\libada_drivers_library.a(nrf-tasks.o)
 .rodata.nrf__tasks__uart_startrx
                0x0000000000000000        0x4 C:\Users\JumpStart\Desktop\lehre\asyd\dev\Ada_Drivers_Library-master\boards\MicroBit\obj\zfp_lib_Debug\libada_drivers_library.a(nrf-tasks.o)
 .rodata.nrf__tasks__uart_stoprx
                0x0000000000000000        0x4 C:\Users\JumpStart\Desktop\lehre\asyd\dev\Ada_Drivers_Library-master\boards\MicroBit\obj\zfp_lib_Debug\libada_drivers_library.a(nrf-tasks.o)
 .rodata.nrf__tasks__uart_starttx
                0x0000000000000000        0x4 C:\Users\JumpStart\Desktop\lehre\asyd\dev\Ada_Drivers_Library-master\boards\MicroBit\obj\zfp_lib_Debug\libada_drivers_library.a(nrf-tasks.o)
 .rodata.nrf__tasks__uart_stoptx
                0x0000000000000000        0x4 C:\Users\JumpStart\Desktop\lehre\asyd\dev\Ada_Drivers_Library-master\boards\MicroBit\obj\zfp_lib_Debug\libada_drivers_library.a(nrf-tasks.o)
 .rodata.nrf__tasks__qdec_start
                0x0000000000000000        0x4 C:\Users\JumpStart\Desktop\lehre\asyd\dev\Ada_Drivers_Library-master\boards\MicroBit\obj\zfp_lib_Debug\libada_drivers_library.a(nrf-tasks.o)
 .rodata.nrf__tasks__qdec_stop
                0x0000000000000000        0x4 C:\Users\JumpStart\Desktop\lehre\asyd\dev\Ada_Drivers_Library-master\boards\MicroBit\obj\zfp_lib_Debug\libada_drivers_library.a(nrf-tasks.o)
 .rodata.nrf__tasks__qdec_readclracc
                0x0000000000000000        0x4 C:\Users\JumpStart\Desktop\lehre\asyd\dev\Ada_Drivers_Library-master\boards\MicroBit\obj\zfp_lib_Debug\libada_drivers_library.a(nrf-tasks.o)
 .rodata.nrf__tasks__adc_start
                0x0000000000000000        0x4 C:\Users\JumpStart\Desktop\lehre\asyd\dev\Ada_Drivers_Library-master\boards\MicroBit\obj\zfp_lib_Debug\libada_drivers_library.a(nrf-tasks.o)
 .rodata.nrf__tasks__adc_stop
                0x0000000000000000        0x4 C:\Users\JumpStart\Desktop\lehre\asyd\dev\Ada_Drivers_Library-master\boards\MicroBit\obj\zfp_lib_Debug\libada_drivers_library.a(nrf-tasks.o)
 .text          0x0000000000000000        0x0 C:\Users\JumpStart\Desktop\lehre\asyd\dev\Ada_Drivers_Library-master\boards\MicroBit\obj\zfp_lib_Debug\libada_drivers_library.a(nrf-timers.o)
 .data          0x0000000000000000        0x0 C:\Users\JumpStart\Desktop\lehre\asyd\dev\Ada_Drivers_Library-master\boards\MicroBit\obj\zfp_lib_Debug\libada_drivers_library.a(nrf-timers.o)
 .bss           0x0000000000000000        0x0 C:\Users\JumpStart\Desktop\lehre\asyd\dev\Ada_Drivers_Library-master\boards\MicroBit\obj\zfp_lib_Debug\libada_drivers_library.a(nrf-timers.o)
 .rodata.nrf__timers__timerP
                0x0000000000000000        0x4 C:\Users\JumpStart\Desktop\lehre\asyd\dev\Ada_Drivers_Library-master\boards\MicroBit\obj\zfp_lib_Debug\libada_drivers_library.a(nrf-timers.o)
 .rodata.nrf__timers__timerY
                0x0000000000000000        0x4 C:\Users\JumpStart\Desktop\lehre\asyd\dev\Ada_Drivers_Library-master\boards\MicroBit\obj\zfp_lib_Debug\libada_drivers_library.a(nrf-timers.o)
 .rodata.nrf__timers__timerR21s
                0x0000000000000000        0x4 C:\Users\JumpStart\Desktop\lehre\asyd\dev\Ada_Drivers_Library-master\boards\MicroBit\obj\zfp_lib_Debug\libada_drivers_library.a(nrf-timers.o)
 .text          0x0000000000000000        0x0 C:\Users\JumpStart\Desktop\lehre\asyd\dev\Ada_Drivers_Library-master\boards\MicroBit\obj\zfp_lib_Debug\libada_drivers_library.a(nrf-twi.o)
 .data          0x0000000000000000        0x0 C:\Users\JumpStart\Desktop\lehre\asyd\dev\Ada_Drivers_Library-master\boards\MicroBit\obj\zfp_lib_Debug\libada_drivers_library.a(nrf-twi.o)
 .bss           0x0000000000000000        0x0 C:\Users\JumpStart\Desktop\lehre\asyd\dev\Ada_Drivers_Library-master\boards\MicroBit\obj\zfp_lib_Debug\libada_drivers_library.a(nrf-twi.o)
 .rodata.nrf__twi__twi_masterP
                0x0000000000000000        0x4 C:\Users\JumpStart\Desktop\lehre\asyd\dev\Ada_Drivers_Library-master\boards\MicroBit\obj\zfp_lib_Debug\libada_drivers_library.a(nrf-twi.o)
 .rodata.nrf__twi__twi_masterY
                0x0000000000000000        0x4 C:\Users\JumpStart\Desktop\lehre\asyd\dev\Ada_Drivers_Library-master\boards\MicroBit\obj\zfp_lib_Debug\libada_drivers_library.a(nrf-twi.o)
 .rodata.nrf__twi__twi_masterR24s
                0x0000000000000000        0x4 C:\Users\JumpStart\Desktop\lehre\asyd\dev\Ada_Drivers_Library-master\boards\MicroBit\obj\zfp_lib_Debug\libada_drivers_library.a(nrf-twi.o)
 .data.T10b.6076
                0x0000000000000000        0x4 C:\Users\JumpStart\Desktop\lehre\asyd\dev\Ada_Drivers_Library-master\boards\MicroBit\obj\zfp_lib_Debug\libada_drivers_library.a(nrf-twi.o)
 .data.T18b.6088
                0x0000000000000000        0x4 C:\Users\JumpStart\Desktop\lehre\asyd\dev\Ada_Drivers_Library-master\boards\MicroBit\obj\zfp_lib_Debug\libada_drivers_library.a(nrf-twi.o)
 .text          0x0000000000000000        0x0 C:\Users\JumpStart\Desktop\lehre\asyd\dev\Ada_Drivers_Library-master\boards\MicroBit\obj\zfp_lib_Debug\libada_drivers_library.a(nrf-uart.o)
 .data          0x0000000000000000        0x0 C:\Users\JumpStart\Desktop\lehre\asyd\dev\Ada_Drivers_Library-master\boards\MicroBit\obj\zfp_lib_Debug\libada_drivers_library.a(nrf-uart.o)
 .bss           0x0000000000000000        0x0 C:\Users\JumpStart\Desktop\lehre\asyd\dev\Ada_Drivers_Library-master\boards\MicroBit\obj\zfp_lib_Debug\libada_drivers_library.a(nrf-uart.o)
 .text.nrf__uart__baud_rateRP
                0x0000000000000000      0x184 C:\Users\JumpStart\Desktop\lehre\asyd\dev\Ada_Drivers_Library-master\boards\MicroBit\obj\zfp_lib_Debug\libada_drivers_library.a(nrf-uart.o)
 .rodata.nrf__uart__uart_deviceP
                0x0000000000000000        0x4 C:\Users\JumpStart\Desktop\lehre\asyd\dev\Ada_Drivers_Library-master\boards\MicroBit\obj\zfp_lib_Debug\libada_drivers_library.a(nrf-uart.o)
 .rodata.nrf__uart__uart_deviceY
                0x0000000000000000        0x4 C:\Users\JumpStart\Desktop\lehre\asyd\dev\Ada_Drivers_Library-master\boards\MicroBit\obj\zfp_lib_Debug\libada_drivers_library.a(nrf-uart.o)
 .rodata.nrf__uart__baud_rateA
                0x0000000000000000       0x40 C:\Users\JumpStart\Desktop\lehre\asyd\dev\Ada_Drivers_Library-master\boards\MicroBit\obj\zfp_lib_Debug\libada_drivers_library.a(nrf-uart.o)
 .rodata.nrf__uart__uart_deviceR46s
                0x0000000000000000        0x4 C:\Users\JumpStart\Desktop\lehre\asyd\dev\Ada_Drivers_Library-master\boards\MicroBit\obj\zfp_lib_Debug\libada_drivers_library.a(nrf-uart.o)
 .text          0x0000000000000000        0x0 C:\Users\JumpStart\Desktop\lehre\asyd\dev\Ada_Drivers_Library-master\boards\MicroBit\obj\zfp_lib_Debug\libada_drivers_library.a(nrf_svd-gpio.o)
 .data          0x0000000000000000        0x0 C:\Users\JumpStart\Desktop\lehre\asyd\dev\Ada_Drivers_Library-master\boards\MicroBit\obj\zfp_lib_Debug\libada_drivers_library.a(nrf_svd-gpio.o)
 .bss           0x0000000000000000        0x0 C:\Users\JumpStart\Desktop\lehre\asyd\dev\Ada_Drivers_Library-master\boards\MicroBit\obj\zfp_lib_Debug\libada_drivers_library.a(nrf_svd-gpio.o)
 .text.nrf_svd__gpio__pin_cnf_sense_fieldRP
                0x0000000000000000       0x40 C:\Users\JumpStart\Desktop\lehre\asyd\dev\Ada_Drivers_Library-master\boards\MicroBit\obj\zfp_lib_Debug\libada_drivers_library.a(nrf_svd-gpio.o)
 .text.nrf_svd__gpio__Tout_pin_field_arrayBIP
                0x0000000000000000       0x14 C:\Users\JumpStart\Desktop\lehre\asyd\dev\Ada_Drivers_Library-master\boards\MicroBit\obj\zfp_lib_Debug\libada_drivers_library.a(nrf_svd-gpio.o)
 .text.nrf_svd__gpio__out_registerEQ__E37s.6168
                0x0000000000000000       0x48 C:\Users\JumpStart\Desktop\lehre\asyd\dev\Ada_Drivers_Library-master\boards\MicroBit\obj\zfp_lib_Debug\libada_drivers_library.a(nrf_svd-gpio.o)
 .text.nrf_svd__gpio__out_registerEQ
                0x0000000000000000       0x78 C:\Users\JumpStart\Desktop\lehre\asyd\dev\Ada_Drivers_Library-master\boards\MicroBit\obj\zfp_lib_Debug\libada_drivers_library.a(nrf_svd-gpio.o)
 .text.nrf_svd__gpio__out_registerIP
                0x0000000000000000       0x18 C:\Users\JumpStart\Desktop\lehre\asyd\dev\Ada_Drivers_Library-master\boards\MicroBit\obj\zfp_lib_Debug\libada_drivers_library.a(nrf_svd-gpio.o)
 .text.nrf_svd__gpio__Toutset_pin_field_arrayBIP
                0x0000000000000000       0x14 C:\Users\JumpStart\Desktop\lehre\asyd\dev\Ada_Drivers_Library-master\boards\MicroBit\obj\zfp_lib_Debug\libada_drivers_library.a(nrf_svd-gpio.o)
 .text.nrf_svd__gpio__outset_registerEQ__E54s.6177
                0x0000000000000000       0x48 C:\Users\JumpStart\Desktop\lehre\asyd\dev\Ada_Drivers_Library-master\boards\MicroBit\obj\zfp_lib_Debug\libada_drivers_library.a(nrf_svd-gpio.o)
 .text.nrf_svd__gpio__outset_registerEQ
                0x0000000000000000       0x78 C:\Users\JumpStart\Desktop\lehre\asyd\dev\Ada_Drivers_Library-master\boards\MicroBit\obj\zfp_lib_Debug\libada_drivers_library.a(nrf_svd-gpio.o)
 .text.nrf_svd__gpio__outset_registerIP
                0x0000000000000000       0x18 C:\Users\JumpStart\Desktop\lehre\asyd\dev\Ada_Drivers_Library-master\boards\MicroBit\obj\zfp_lib_Debug\libada_drivers_library.a(nrf_svd-gpio.o)
 .text.nrf_svd__gpio__Toutclr_pin_field_arrayBIP
                0x0000000000000000       0x14 C:\Users\JumpStart\Desktop\lehre\asyd\dev\Ada_Drivers_Library-master\boards\MicroBit\obj\zfp_lib_Debug\libada_drivers_library.a(nrf_svd-gpio.o)
 .text.nrf_svd__gpio__outclr_registerEQ__E71s.6186
                0x0000000000000000       0x48 C:\Users\JumpStart\Desktop\lehre\asyd\dev\Ada_Drivers_Library-master\boards\MicroBit\obj\zfp_lib_Debug\libada_drivers_library.a(nrf_svd-gpio.o)
 .text.nrf_svd__gpio__outclr_registerEQ
                0x0000000000000000       0x78 C:\Users\JumpStart\Desktop\lehre\asyd\dev\Ada_Drivers_Library-master\boards\MicroBit\obj\zfp_lib_Debug\libada_drivers_library.a(nrf_svd-gpio.o)
 .text.nrf_svd__gpio__outclr_registerIP
                0x0000000000000000       0x18 C:\Users\JumpStart\Desktop\lehre\asyd\dev\Ada_Drivers_Library-master\boards\MicroBit\obj\zfp_lib_Debug\libada_drivers_library.a(nrf_svd-gpio.o)
 .text.nrf_svd__gpio__Tin_pin_field_arrayBIP
                0x0000000000000000       0x14 C:\Users\JumpStart\Desktop\lehre\asyd\dev\Ada_Drivers_Library-master\boards\MicroBit\obj\zfp_lib_Debug\libada_drivers_library.a(nrf_svd-gpio.o)
 .text.nrf_svd__gpio__in_registerEQ__E88s.6195
                0x0000000000000000       0x48 C:\Users\JumpStart\Desktop\lehre\asyd\dev\Ada_Drivers_Library-master\boards\MicroBit\obj\zfp_lib_Debug\libada_drivers_library.a(nrf_svd-gpio.o)
 .text.nrf_svd__gpio__in_registerEQ
                0x0000000000000000       0x78 C:\Users\JumpStart\Desktop\lehre\asyd\dev\Ada_Drivers_Library-master\boards\MicroBit\obj\zfp_lib_Debug\libada_drivers_library.a(nrf_svd-gpio.o)
 .text.nrf_svd__gpio__in_registerIP
                0x0000000000000000       0x18 C:\Users\JumpStart\Desktop\lehre\asyd\dev\Ada_Drivers_Library-master\boards\MicroBit\obj\zfp_lib_Debug\libada_drivers_library.a(nrf_svd-gpio.o)
 .text.nrf_svd__gpio__Tdir_pin_field_arrayBIP
                0x0000000000000000       0x14 C:\Users\JumpStart\Desktop\lehre\asyd\dev\Ada_Drivers_Library-master\boards\MicroBit\obj\zfp_lib_Debug\libada_drivers_library.a(nrf_svd-gpio.o)
 .text.nrf_svd__gpio__dir_registerEQ__E105s.6204
                0x0000000000000000       0x48 C:\Users\JumpStart\Desktop\lehre\asyd\dev\Ada_Drivers_Library-master\boards\MicroBit\obj\zfp_lib_Debug\libada_drivers_library.a(nrf_svd-gpio.o)
 .text.nrf_svd__gpio__dir_registerEQ
                0x0000000000000000       0x78 C:\Users\JumpStart\Desktop\lehre\asyd\dev\Ada_Drivers_Library-master\boards\MicroBit\obj\zfp_lib_Debug\libada_drivers_library.a(nrf_svd-gpio.o)
 .text.nrf_svd__gpio__dir_registerIP
                0x0000000000000000       0x18 C:\Users\JumpStart\Desktop\lehre\asyd\dev\Ada_Drivers_Library-master\boards\MicroBit\obj\zfp_lib_Debug\libada_drivers_library.a(nrf_svd-gpio.o)
 .text.nrf_svd__gpio__Tdirset_pin_field_arrayBIP
                0x0000000000000000       0x14 C:\Users\JumpStart\Desktop\lehre\asyd\dev\Ada_Drivers_Library-master\boards\MicroBit\obj\zfp_lib_Debug\libada_drivers_library.a(nrf_svd-gpio.o)
 .text.nrf_svd__gpio__dirset_registerEQ__E122s.6213
                0x0000000000000000       0x48 C:\Users\JumpStart\Desktop\lehre\asyd\dev\Ada_Drivers_Library-master\boards\MicroBit\obj\zfp_lib_Debug\libada_drivers_library.a(nrf_svd-gpio.o)
 .text.nrf_svd__gpio__dirset_registerEQ
                0x0000000000000000       0x78 C:\Users\JumpStart\Desktop\lehre\asyd\dev\Ada_Drivers_Library-master\boards\MicroBit\obj\zfp_lib_Debug\libada_drivers_library.a(nrf_svd-gpio.o)
 .text.nrf_svd__gpio__dirset_registerIP
                0x0000000000000000       0x18 C:\Users\JumpStart\Desktop\lehre\asyd\dev\Ada_Drivers_Library-master\boards\MicroBit\obj\zfp_lib_Debug\libada_drivers_library.a(nrf_svd-gpio.o)
 .text.nrf_svd__gpio__Tdirclr_pin_field_arrayBIP
                0x0000000000000000       0x14 C:\Users\JumpStart\Desktop\lehre\asyd\dev\Ada_Drivers_Library-master\boards\MicroBit\obj\zfp_lib_Debug\libada_drivers_library.a(nrf_svd-gpio.o)
 .text.nrf_svd__gpio__dirclr_registerEQ__E139s.6222
                0x0000000000000000       0x48 C:\Users\JumpStart\Desktop\lehre\asyd\dev\Ada_Drivers_Library-master\boards\MicroBit\obj\zfp_lib_Debug\libada_drivers_library.a(nrf_svd-gpio.o)
 .text.nrf_svd__gpio__dirclr_registerEQ
                0x0000000000000000       0x78 C:\Users\JumpStart\Desktop\lehre\asyd\dev\Ada_Drivers_Library-master\boards\MicroBit\obj\zfp_lib_Debug\libada_drivers_library.a(nrf_svd-gpio.o)
 .text.nrf_svd__gpio__dirclr_registerIP
                0x0000000000000000       0x18 C:\Users\JumpStart\Desktop\lehre\asyd\dev\Ada_Drivers_Library-master\boards\MicroBit\obj\zfp_lib_Debug\libada_drivers_library.a(nrf_svd-gpio.o)
 .text.nrf_svd__gpio__Tlatch_pin_field_arrayBIP
                0x0000000000000000       0x14 C:\Users\JumpStart\Desktop\lehre\asyd\dev\Ada_Drivers_Library-master\boards\MicroBit\obj\zfp_lib_Debug\libada_drivers_library.a(nrf_svd-gpio.o)
 .text.nrf_svd__gpio__latch_registerEQ__E156s.6231
                0x0000000000000000       0x48 C:\Users\JumpStart\Desktop\lehre\asyd\dev\Ada_Drivers_Library-master\boards\MicroBit\obj\zfp_lib_Debug\libada_drivers_library.a(nrf_svd-gpio.o)
 .text.nrf_svd__gpio__latch_registerEQ
                0x0000000000000000       0x78 C:\Users\JumpStart\Desktop\lehre\asyd\dev\Ada_Drivers_Library-master\boards\MicroBit\obj\zfp_lib_Debug\libada_drivers_library.a(nrf_svd-gpio.o)
 .text.nrf_svd__gpio__latch_registerIP
                0x0000000000000000       0x18 C:\Users\JumpStart\Desktop\lehre\asyd\dev\Ada_Drivers_Library-master\boards\MicroBit\obj\zfp_lib_Debug\libada_drivers_library.a(nrf_svd-gpio.o)
 .text.nrf_svd__gpio__detectmode_registerIP
                0x0000000000000000       0x30 C:\Users\JumpStart\Desktop\lehre\asyd\dev\Ada_Drivers_Library-master\boards\MicroBit\obj\zfp_lib_Debug\libada_drivers_library.a(nrf_svd-gpio.o)
 .text.nrf_svd__gpio__pin_cnf_registerIP
                0x0000000000000000       0x84 C:\Users\JumpStart\Desktop\lehre\asyd\dev\Ada_Drivers_Library-master\boards\MicroBit\obj\zfp_lib_Debug\libada_drivers_library.a(nrf_svd-gpio.o)
 .text.nrf_svd__gpio__Tpin_cnf_registersBIP
                0x0000000000000000       0x3c C:\Users\JumpStart\Desktop\lehre\asyd\dev\Ada_Drivers_Library-master\boards\MicroBit\obj\zfp_lib_Debug\libada_drivers_library.a(nrf_svd-gpio.o)
 .rodata        0x0000000000000000       0x1c C:\Users\JumpStart\Desktop\lehre\asyd\dev\Ada_Drivers_Library-master\boards\MicroBit\obj\zfp_lib_Debug\libada_drivers_library.a(nrf_svd-gpio.o)
 .text.nrf_svd__gpio__gpio_peripheralEQ
                0x0000000000000000       0x18 C:\Users\JumpStart\Desktop\lehre\asyd\dev\Ada_Drivers_Library-master\boards\MicroBit\obj\zfp_lib_Debug\libada_drivers_library.a(nrf_svd-gpio.o)
 .text.nrf_svd__gpio__gpio_peripheralIP
                0x0000000000000000       0x30 C:\Users\JumpStart\Desktop\lehre\asyd\dev\Ada_Drivers_Library-master\boards\MicroBit\obj\zfp_lib_Debug\libada_drivers_library.a(nrf_svd-gpio.o)
 .rodata.nrf_svd__gpio__pin_cnf_pull_fieldA
                0x0000000000000000        0x4 C:\Users\JumpStart\Desktop\lehre\asyd\dev\Ada_Drivers_Library-master\boards\MicroBit\obj\zfp_lib_Debug\libada_drivers_library.a(nrf_svd-gpio.o)
 .rodata.nrf_svd__gpio__pin_cnf_sense_fieldA
                0x0000000000000000        0x4 C:\Users\JumpStart\Desktop\lehre\asyd\dev\Ada_Drivers_Library-master\boards\MicroBit\obj\zfp_lib_Debug\libada_drivers_library.a(nrf_svd-gpio.o)
 .rodata.nrf_svd__gpio__gpio_periph_0
                0x0000000000000000        0x4 C:\Users\JumpStart\Desktop\lehre\asyd\dev\Ada_Drivers_Library-master\boards\MicroBit\obj\zfp_lib_Debug\libada_drivers_library.a(nrf_svd-gpio.o)
 .rodata.nrf_svd__gpio__gpio_periph_1
                0x0000000000000000        0x4 C:\Users\JumpStart\Desktop\lehre\asyd\dev\Ada_Drivers_Library-master\boards\MicroBit\obj\zfp_lib_Debug\libada_drivers_library.a(nrf_svd-gpio.o)
 .text          0x0000000000000000        0x0 C:\Users\JumpStart\Desktop\lehre\asyd\dev\Ada_Drivers_Library-master\boards\MicroBit\obj\zfp_lib_Debug\libada_drivers_library.a(nrf_svd-twi.o)
 .data          0x0000000000000000        0x0 C:\Users\JumpStart\Desktop\lehre\asyd\dev\Ada_Drivers_Library-master\boards\MicroBit\obj\zfp_lib_Debug\libada_drivers_library.a(nrf_svd-twi.o)
 .bss           0x0000000000000000        0x0 C:\Users\JumpStart\Desktop\lehre\asyd\dev\Ada_Drivers_Library-master\boards\MicroBit\obj\zfp_lib_Debug\libada_drivers_library.a(nrf_svd-twi.o)
 .text.nrf_svd__twi__enable_enable_fieldRP
                0x0000000000000000       0x34 C:\Users\JumpStart\Desktop\lehre\asyd\dev\Ada_Drivers_Library-master\boards\MicroBit\obj\zfp_lib_Debug\libada_drivers_library.a(nrf_svd-twi.o)
 .text.nrf_svd__twi__shorts_registerIP
                0x0000000000000000       0x3c C:\Users\JumpStart\Desktop\lehre\asyd\dev\Ada_Drivers_Library-master\boards\MicroBit\obj\zfp_lib_Debug\libada_drivers_library.a(nrf_svd-twi.o)
 .text.nrf_svd__twi__intenset_registerIP
                0x0000000000000000       0xbc C:\Users\JumpStart\Desktop\lehre\asyd\dev\Ada_Drivers_Library-master\boards\MicroBit\obj\zfp_lib_Debug\libada_drivers_library.a(nrf_svd-twi.o)
 .text.nrf_svd__twi__intenclr_registerIP
                0x0000000000000000       0xbc C:\Users\JumpStart\Desktop\lehre\asyd\dev\Ada_Drivers_Library-master\boards\MicroBit\obj\zfp_lib_Debug\libada_drivers_library.a(nrf_svd-twi.o)
 .text.nrf_svd__twi__enable_registerIP
                0x0000000000000000       0x30 C:\Users\JumpStart\Desktop\lehre\asyd\dev\Ada_Drivers_Library-master\boards\MicroBit\obj\zfp_lib_Debug\libada_drivers_library.a(nrf_svd-twi.o)
 .text.nrf_svd__twi__rxd_registerIP
                0x0000000000000000       0x14 C:\Users\JumpStart\Desktop\lehre\asyd\dev\Ada_Drivers_Library-master\boards\MicroBit\obj\zfp_lib_Debug\libada_drivers_library.a(nrf_svd-twi.o)
 .text.nrf_svd__twi__txd_registerIP
                0x0000000000000000       0x30 C:\Users\JumpStart\Desktop\lehre\asyd\dev\Ada_Drivers_Library-master\boards\MicroBit\obj\zfp_lib_Debug\libada_drivers_library.a(nrf_svd-twi.o)
 .text.nrf_svd__twi__address_registerIP
                0x0000000000000000       0x30 C:\Users\JumpStart\Desktop\lehre\asyd\dev\Ada_Drivers_Library-master\boards\MicroBit\obj\zfp_lib_Debug\libada_drivers_library.a(nrf_svd-twi.o)
 .text.nrf_svd__twi__twi_peripheralIP
                0x0000000000000000       0x64 C:\Users\JumpStart\Desktop\lehre\asyd\dev\Ada_Drivers_Library-master\boards\MicroBit\obj\zfp_lib_Debug\libada_drivers_library.a(nrf_svd-twi.o)
 .rodata.nrf_svd__twi__enable_enable_fieldA
                0x0000000000000000        0x2 C:\Users\JumpStart\Desktop\lehre\asyd\dev\Ada_Drivers_Library-master\boards\MicroBit\obj\zfp_lib_Debug\libada_drivers_library.a(nrf_svd-twi.o)
 .rodata.nrf_svd__twi__twi0_periph
                0x0000000000000000        0x4 C:\Users\JumpStart\Desktop\lehre\asyd\dev\Ada_Drivers_Library-master\boards\MicroBit\obj\zfp_lib_Debug\libada_drivers_library.a(nrf_svd-twi.o)
 .rodata.nrf_svd__twi__twi1_periph
                0x0000000000000000        0x4 C:\Users\JumpStart\Desktop\lehre\asyd\dev\Ada_Drivers_Library-master\boards\MicroBit\obj\zfp_lib_Debug\libada_drivers_library.a(nrf_svd-twi.o)
 .text          0x0000000000000000        0x0 C:\Users\JumpStart\Desktop\lehre\asyd\dev\Ada_Drivers_Library-master\boards\MicroBit\obj\zfp_lib_Debug\libada_drivers_library.a(hal-gpio.o)
 .data          0x0000000000000000        0x0 C:\Users\JumpStart\Desktop\lehre\asyd\dev\Ada_Drivers_Library-master\boards\MicroBit\obj\zfp_lib_Debug\libada_drivers_library.a(hal-gpio.o)
 .bss           0x0000000000000000        0x0 C:\Users\JumpStart\Desktop\lehre\asyd\dev\Ada_Drivers_Library-master\boards\MicroBit\obj\zfp_lib_Debug\libada_drivers_library.a(hal-gpio.o)
 .data.hal__gpio_E
                0x0000000000000000        0x2 C:\Users\JumpStart\Desktop\lehre\asyd\dev\Ada_Drivers_Library-master\boards\MicroBit\obj\zfp_lib_Debug\libada_drivers_library.a(hal-gpio.o)
 .rodata.hal__gpio__gpio_pointP
                0x0000000000000000        0x4 C:\Users\JumpStart\Desktop\lehre\asyd\dev\Ada_Drivers_Library-master\boards\MicroBit\obj\zfp_lib_Debug\libada_drivers_library.a(hal-gpio.o)
 .text          0x0000000000000000        0x0 C:\Users\JumpStart\Desktop\lehre\asyd\dev\Ada_Drivers_Library-master\boards\MicroBit\obj\zfp_lib_Debug\libada_drivers_library.a(hal-i2c.o)
 .data          0x0000000000000000        0x0 C:\Users\JumpStart\Desktop\lehre\asyd\dev\Ada_Drivers_Library-master\boards\MicroBit\obj\zfp_lib_Debug\libada_drivers_library.a(hal-i2c.o)
 .bss           0x0000000000000000        0x0 C:\Users\JumpStart\Desktop\lehre\asyd\dev\Ada_Drivers_Library-master\boards\MicroBit\obj\zfp_lib_Debug\libada_drivers_library.a(hal-i2c.o)
 .data.hal__i2c_E
                0x0000000000000000        0x2 C:\Users\JumpStart\Desktop\lehre\asyd\dev\Ada_Drivers_Library-master\boards\MicroBit\obj\zfp_lib_Debug\libada_drivers_library.a(hal-i2c.o)
 .rodata.hal__i2c__i2c_portP
                0x0000000000000000        0x4 C:\Users\JumpStart\Desktop\lehre\asyd\dev\Ada_Drivers_Library-master\boards\MicroBit\obj\zfp_lib_Debug\libada_drivers_library.a(hal-i2c.o)
 .text          0x0000000000000000        0x0 C:\Users\JumpStart\Desktop\lehre\asyd\dev\Ada_Drivers_Library-master\boards\MicroBit\obj\zfp_lib_Debug\libada_drivers_library.a(hal-spi.o)
 .data          0x0000000000000000        0x0 C:\Users\JumpStart\Desktop\lehre\asyd\dev\Ada_Drivers_Library-master\boards\MicroBit\obj\zfp_lib_Debug\libada_drivers_library.a(hal-spi.o)
 .bss           0x0000000000000000        0x0 C:\Users\JumpStart\Desktop\lehre\asyd\dev\Ada_Drivers_Library-master\boards\MicroBit\obj\zfp_lib_Debug\libada_drivers_library.a(hal-spi.o)
 .text.hal__spi__spi_data_8bIP
                0x0000000000000000       0x14 C:\Users\JumpStart\Desktop\lehre\asyd\dev\Ada_Drivers_Library-master\boards\MicroBit\obj\zfp_lib_Debug\libada_drivers_library.a(hal-spi.o)
 .text.hal__spi__spi_data_16bIP
                0x0000000000000000       0x14 C:\Users\JumpStart\Desktop\lehre\asyd\dev\Ada_Drivers_Library-master\boards\MicroBit\obj\zfp_lib_Debug\libada_drivers_library.a(hal-spi.o)
 .data.hal__spi_E
                0x0000000000000000        0x2 C:\Users\JumpStart\Desktop\lehre\asyd\dev\Ada_Drivers_Library-master\boards\MicroBit\obj\zfp_lib_Debug\libada_drivers_library.a(hal-spi.o)
 .rodata.hal__spi__spi_portP
                0x0000000000000000        0x4 C:\Users\JumpStart\Desktop\lehre\asyd\dev\Ada_Drivers_Library-master\boards\MicroBit\obj\zfp_lib_Debug\libada_drivers_library.a(hal-spi.o)
 .text          0x0000000000000000        0x0 C:\Users\JumpStart\Desktop\lehre\asyd\dev\Ada_Drivers_Library-master\boards\MicroBit\obj\zfp_lib_Debug\libada_drivers_library.a(hal-time.o)
 .data          0x0000000000000000        0x0 C:\Users\JumpStart\Desktop\lehre\asyd\dev\Ada_Drivers_Library-master\boards\MicroBit\obj\zfp_lib_Debug\libada_drivers_library.a(hal-time.o)
 .bss           0x0000000000000000        0x0 C:\Users\JumpStart\Desktop\lehre\asyd\dev\Ada_Drivers_Library-master\boards\MicroBit\obj\zfp_lib_Debug\libada_drivers_library.a(hal-time.o)
 .data.hal__time_E
                0x0000000000000000        0x2 C:\Users\JumpStart\Desktop\lehre\asyd\dev\Ada_Drivers_Library-master\boards\MicroBit\obj\zfp_lib_Debug\libada_drivers_library.a(hal-time.o)
 .rodata.hal__time__delaysP
                0x0000000000000000        0x4 C:\Users\JumpStart\Desktop\lehre\asyd\dev\Ada_Drivers_Library-master\boards\MicroBit\obj\zfp_lib_Debug\libada_drivers_library.a(hal-time.o)
 .text          0x0000000000000000        0x0 C:\Users\JumpStart\Desktop\lehre\asyd\dev\Ada_Drivers_Library-master\boards\MicroBit\obj\zfp_lib_Debug\libada_drivers_library.a(hal-uart.o)
 .data          0x0000000000000000        0x0 C:\Users\JumpStart\Desktop\lehre\asyd\dev\Ada_Drivers_Library-master\boards\MicroBit\obj\zfp_lib_Debug\libada_drivers_library.a(hal-uart.o)
 .bss           0x0000000000000000        0x0 C:\Users\JumpStart\Desktop\lehre\asyd\dev\Ada_Drivers_Library-master\boards\MicroBit\obj\zfp_lib_Debug\libada_drivers_library.a(hal-uart.o)
 .text.hal__uart__uart_data_8bIP
                0x0000000000000000       0x14 C:\Users\JumpStart\Desktop\lehre\asyd\dev\Ada_Drivers_Library-master\boards\MicroBit\obj\zfp_lib_Debug\libada_drivers_library.a(hal-uart.o)
 .text.hal__uart__uart_data_9bIP
                0x0000000000000000       0x14 C:\Users\JumpStart\Desktop\lehre\asyd\dev\Ada_Drivers_Library-master\boards\MicroBit\obj\zfp_lib_Debug\libada_drivers_library.a(hal-uart.o)
 .data.hal__uart_E
                0x0000000000000000        0x2 C:\Users\JumpStart\Desktop\lehre\asyd\dev\Ada_Drivers_Library-master\boards\MicroBit\obj\zfp_lib_Debug\libada_drivers_library.a(hal-uart.o)
 .rodata.hal__uart__uart_portP
                0x0000000000000000        0x4 C:\Users\JumpStart\Desktop\lehre\asyd\dev\Ada_Drivers_Library-master\boards\MicroBit\obj\zfp_lib_Debug\libada_drivers_library.a(hal-uart.o)
 .text          0x0000000000000000        0x0 C:\gnat\2020-arm-elf\arm-eabi\lib\gnat\zfp-cortex-m4f\adalib\libgnat.a(a-elchha.o)
 .data          0x0000000000000000        0x0 C:\gnat\2020-arm-elf\arm-eabi\lib\gnat\zfp-cortex-m4f\adalib\libgnat.a(a-elchha.o)
 .bss           0x0000000000000000        0x0 C:\gnat\2020-arm-elf\arm-eabi\lib\gnat\zfp-cortex-m4f\adalib\libgnat.a(a-elchha.o)
 .data.ada__exceptions__last_chance_handler_E
                0x0000000000000000        0x2 C:\gnat\2020-arm-elf\arm-eabi\lib\gnat\zfp-cortex-m4f\adalib\libgnat.a(a-elchha.o)
 .data          0x0000000000000000        0x0 C:\gnat\2020-arm-elf\arm-eabi\lib\gnat\zfp-cortex-m4f\adalib\libgnat.a(breakpoint_handler-cortexm.o)
 .bss           0x0000000000000000        0x0 C:\gnat\2020-arm-elf\arm-eabi\lib\gnat\zfp-cortex-m4f\adalib\libgnat.a(breakpoint_handler-cortexm.o)
 .text          0x0000000000000000        0x0 C:\gnat\2020-arm-elf\arm-eabi\lib\gnat\zfp-cortex-m4f\adalib\libgnat.a(g-io.o)
 .data          0x0000000000000000        0x0 C:\gnat\2020-arm-elf\arm-eabi\lib\gnat\zfp-cortex-m4f\adalib\libgnat.a(g-io.o)
 .bss           0x0000000000000000        0x0 C:\gnat\2020-arm-elf\arm-eabi\lib\gnat\zfp-cortex-m4f\adalib\libgnat.a(g-io.o)
 .data.gnat__io_E
                0x0000000000000000        0x2 C:\gnat\2020-arm-elf\arm-eabi\lib\gnat\zfp-cortex-m4f\adalib\libgnat.a(g-io.o)
 .text          0x0000000000000000        0x0 C:\gnat\2020-arm-elf\arm-eabi\lib\gnat\zfp-cortex-m4f\adalib\libgnat.a(s-assert.o)
 .data          0x0000000000000000        0x0 C:\gnat\2020-arm-elf\arm-eabi\lib\gnat\zfp-cortex-m4f\adalib\libgnat.a(s-assert.o)
 .bss           0x0000000000000000        0x0 C:\gnat\2020-arm-elf\arm-eabi\lib\gnat\zfp-cortex-m4f\adalib\libgnat.a(s-assert.o)
 .data.system__assertions_E
                0x0000000000000000        0x2 C:\gnat\2020-arm-elf\arm-eabi\lib\gnat\zfp-cortex-m4f\adalib\libgnat.a(s-assert.o)
 .data.system__assertions__assert_failure
                0x0000000000000000       0x18 C:\gnat\2020-arm-elf\arm-eabi\lib\gnat\zfp-cortex-m4f\adalib\libgnat.a(s-assert.o)
 .rodata.system__assertions__R2s
                0x0000000000000000        0x4 C:\gnat\2020-arm-elf\arm-eabi\lib\gnat\zfp-cortex-m4f\adalib\libgnat.a(s-assert.o)
 .rodata.system__assertions__assert_failureE
                0x0000000000000000        0x1 C:\gnat\2020-arm-elf\arm-eabi\lib\gnat\zfp-cortex-m4f\adalib\libgnat.a(s-assert.o)
 .text          0x0000000000000000        0x0 C:\gnat\2020-arm-elf\arm-eabi\lib\gnat\zfp-cortex-m4f\adalib\libgnat.a(s-macres.o)
 .data          0x0000000000000000        0x0 C:\gnat\2020-arm-elf\arm-eabi\lib\gnat\zfp-cortex-m4f\adalib\libgnat.a(s-macres.o)
 .bss           0x0000000000000000        0x0 C:\gnat\2020-arm-elf\arm-eabi\lib\gnat\zfp-cortex-m4f\adalib\libgnat.a(s-macres.o)
 .text.abort    0x0000000000000000        0x8 C:\gnat\2020-arm-elf\arm-eabi\lib\gnat\zfp-cortex-m4f\adalib\libgnat.a(s-macres.o)
 .data.system__machine_reset_E
                0x0000000000000000        0x2 C:\gnat\2020-arm-elf\arm-eabi\lib\gnat\zfp-cortex-m4f\adalib\libgnat.a(s-macres.o)
 .text          0x0000000000000000        0x0 C:\gnat\2020-arm-elf\arm-eabi\lib\gnat\zfp-cortex-m4f\adalib\libgnat.a(s-memcop.o)
 .data          0x0000000000000000        0x0 C:\gnat\2020-arm-elf\arm-eabi\lib\gnat\zfp-cortex-m4f\adalib\libgnat.a(s-memcop.o)
 .bss           0x0000000000000000        0x0 C:\gnat\2020-arm-elf\arm-eabi\lib\gnat\zfp-cortex-m4f\adalib\libgnat.a(s-memcop.o)
 .data.system__memory_copy_E
                0x0000000000000000        0x2 C:\gnat\2020-arm-elf\arm-eabi\lib\gnat\zfp-cortex-m4f\adalib\libgnat.a(s-memcop.o)
 .text          0x0000000000000000        0x0 C:\gnat\2020-arm-elf\arm-eabi\lib\gnat\zfp-cortex-m4f\adalib\libgnat.a(s-memmov.o)
 .data          0x0000000000000000        0x0 C:\gnat\2020-arm-elf\arm-eabi\lib\gnat\zfp-cortex-m4f\adalib\libgnat.a(s-memmov.o)
 .bss           0x0000000000000000        0x0 C:\gnat\2020-arm-elf\arm-eabi\lib\gnat\zfp-cortex-m4f\adalib\libgnat.a(s-memmov.o)
 .data.system__memory_move_E
                0x0000000000000000        0x2 C:\gnat\2020-arm-elf\arm-eabi\lib\gnat\zfp-cortex-m4f\adalib\libgnat.a(s-memmov.o)
 .text          0x0000000000000000        0x0 C:\gnat\2020-arm-elf\arm-eabi\lib\gnat\zfp-cortex-m4f\adalib\libgnat.a(s-memset.o)
 .data          0x0000000000000000        0x0 C:\gnat\2020-arm-elf\arm-eabi\lib\gnat\zfp-cortex-m4f\adalib\libgnat.a(s-memset.o)
 .bss           0x0000000000000000        0x0 C:\gnat\2020-arm-elf\arm-eabi\lib\gnat\zfp-cortex-m4f\adalib\libgnat.a(s-memset.o)
 .data.system__memory_set_E
                0x0000000000000000        0x2 C:\gnat\2020-arm-elf\arm-eabi\lib\gnat\zfp-cortex-m4f\adalib\libgnat.a(s-memset.o)
 .text          0x0000000000000000        0x0 C:\gnat\2020-arm-elf\arm-eabi\lib\gnat\zfp-cortex-m4f\adalib\libgnat.a(s-secsta.o)
 .data          0x0000000000000000        0x0 C:\gnat\2020-arm-elf\arm-eabi\lib\gnat\zfp-cortex-m4f\adalib\libgnat.a(s-secsta.o)
 .bss           0x0000000000000000        0x0 C:\gnat\2020-arm-elf\arm-eabi\lib\gnat\zfp-cortex-m4f\adalib\libgnat.a(s-secsta.o)
 .text.system__secondary_stack__memoryIP
                0x0000000000000000        0x4 C:\gnat\2020-arm-elf\arm-eabi\lib\gnat\zfp-cortex-m4f\adalib\libgnat.a(s-secsta.o)
 .text.system__secondary_stack__ss_allocate
                0x0000000000000000       0x60 C:\gnat\2020-arm-elf\arm-eabi\lib\gnat\zfp-cortex-m4f\adalib\libgnat.a(s-secsta.o)
 .text.system__secondary_stack__ss_get_max
                0x0000000000000000       0x10 C:\gnat\2020-arm-elf\arm-eabi\lib\gnat\zfp-cortex-m4f\adalib\libgnat.a(s-secsta.o)
 .text.system__secondary_stack__ss_init
                0x0000000000000000       0x6c C:\gnat\2020-arm-elf\arm-eabi\lib\gnat\zfp-cortex-m4f\adalib\libgnat.a(s-secsta.o)
 .text.system__secondary_stack__ss_mark
                0x0000000000000000        0xc C:\gnat\2020-arm-elf\arm-eabi\lib\gnat\zfp-cortex-m4f\adalib\libgnat.a(s-secsta.o)
 .text.system__secondary_stack__ss_release
                0x0000000000000000        0xc C:\gnat\2020-arm-elf\arm-eabi\lib\gnat\zfp-cortex-m4f\adalib\libgnat.a(s-secsta.o)
 .rodata        0x0000000000000000        0xd C:\gnat\2020-arm-elf\arm-eabi\lib\gnat\zfp-cortex-m4f\adalib\libgnat.a(s-secsta.o)
 .bss.system__secondary_stack__ss_pool
                0x0000000000000000        0x4 C:\gnat\2020-arm-elf\arm-eabi\lib\gnat\zfp-cortex-m4f\adalib\libgnat.a(s-secsta.o)
 .data.system__secondary_stack_E
                0x0000000000000000        0x2 C:\gnat\2020-arm-elf\arm-eabi\lib\gnat\zfp-cortex-m4f\adalib\libgnat.a(s-secsta.o)
 .data.system__secondary_stack__num_of_assigned_stacks
                0x0000000000000000        0x4 C:\gnat\2020-arm-elf\arm-eabi\lib\gnat\zfp-cortex-m4f\adalib\libgnat.a(s-secsta.o)
 .text          0x0000000000000000        0x0 C:\gnat\2020-arm-elf\arm-eabi\lib\gnat\zfp-cortex-m4f\adalib\libgnat.a(s-sssita.o)
 .data          0x0000000000000000        0x0 C:\gnat\2020-arm-elf\arm-eabi\lib\gnat\zfp-cortex-m4f\adalib\libgnat.a(s-sssita.o)
 .bss           0x0000000000000000        0x0 C:\gnat\2020-arm-elf\arm-eabi\lib\gnat\zfp-cortex-m4f\adalib\libgnat.a(s-sssita.o)
 .text.__gnat_get_secondary_stack
                0x0000000000000000       0x1c C:\gnat\2020-arm-elf\arm-eabi\lib\gnat\zfp-cortex-m4f\adalib\libgnat.a(s-sssita.o)
 .data.system__secondary_stack__single_task__secondary_stack
                0x0000000000000000        0x4 C:\gnat\2020-arm-elf\arm-eabi\lib\gnat\zfp-cortex-m4f\adalib\libgnat.a(s-sssita.o)
 .comment       0x0000000000000000       0x3e C:\gnat\2020-arm-elf\arm-eabi\lib\gnat\zfp-cortex-m4f\adalib\libgnat.a(s-sssita.o)
 .ARM.attributes
                0x0000000000000000       0x32 C:\gnat\2020-arm-elf\arm-eabi\lib\gnat\zfp-cortex-m4f\adalib\libgnat.a(s-sssita.o)
 .text          0x0000000000000000        0x0 C:\gnat\2020-arm-elf\arm-eabi\lib\gnat\zfp-cortex-m4f\adalib\libgnat.a(s-textio.o)
 .data          0x0000000000000000        0x0 C:\gnat\2020-arm-elf\arm-eabi\lib\gnat\zfp-cortex-m4f\adalib\libgnat.a(s-textio.o)
 .bss           0x0000000000000000        0x0 C:\gnat\2020-arm-elf\arm-eabi\lib\gnat\zfp-cortex-m4f\adalib\libgnat.a(s-textio.o)
 .text.system__text_io__is_rx_ready
                0x0000000000000000        0x4 C:\gnat\2020-arm-elf\arm-eabi\lib\gnat\zfp-cortex-m4f\adalib\libgnat.a(s-textio.o)
 .text.system__text_io__get
                0x0000000000000000        0x4 C:\gnat\2020-arm-elf\arm-eabi\lib\gnat\zfp-cortex-m4f\adalib\libgnat.a(s-textio.o)
 .data.system__text_io_E
                0x0000000000000000        0x2 C:\gnat\2020-arm-elf\arm-eabi\lib\gnat\zfp-cortex-m4f\adalib\libgnat.a(s-textio.o)
 .text          0x0000000000000000        0x0 C:\gnat\2020-arm-elf\arm-eabi\lib\gnat\zfp-cortex-m4f\adalib\libgnat.a(a-except.o)
 .data          0x0000000000000000        0x0 C:\gnat\2020-arm-elf\arm-eabi\lib\gnat\zfp-cortex-m4f\adalib\libgnat.a(a-except.o)
 .bss           0x0000000000000000        0x0 C:\gnat\2020-arm-elf\arm-eabi\lib\gnat\zfp-cortex-m4f\adalib\libgnat.a(a-except.o)
 .data.ada__exceptions_E
                0x0000000000000000        0x2 C:\gnat\2020-arm-elf\arm-eabi\lib\gnat\zfp-cortex-m4f\adalib\libgnat.a(a-except.o)
 .rodata.ada__exceptions__null_id
                0x0000000000000000        0x4 C:\gnat\2020-arm-elf\arm-eabi\lib\gnat\zfp-cortex-m4f\adalib\libgnat.a(a-except.o)
 .rodata.ada__exceptions__empty_c_string
                0x0000000000000000        0x4 C:\gnat\2020-arm-elf\arm-eabi\lib\gnat\zfp-cortex-m4f\adalib\libgnat.a(a-except.o)
 .text          0x0000000000000000        0x0 C:\gnat\2020-arm-elf\arm-eabi\lib\gnat\zfp-cortex-m4f\adalib\libgnat.a(s-semiho.o)
 .data          0x0000000000000000        0x0 C:\gnat\2020-arm-elf\arm-eabi\lib\gnat\zfp-cortex-m4f\adalib\libgnat.a(s-semiho.o)
 .bss           0x0000000000000000        0x0 C:\gnat\2020-arm-elf\arm-eabi\lib\gnat\zfp-cortex-m4f\adalib\libgnat.a(s-semiho.o)
 .text.system__semihosting__TbufferBIP
                0x0000000000000000        0x4 C:\gnat\2020-arm-elf\arm-eabi\lib\gnat\zfp-cortex-m4f\adalib\libgnat.a(s-semiho.o)
 .text.system__semihosting__put__2
                0x0000000000000000       0x20 C:\gnat\2020-arm-elf\arm-eabi\lib\gnat\zfp-cortex-m4f\adalib\libgnat.a(s-semiho.o)
 .text.system__semihosting__get
                0x0000000000000000       0x10 C:\gnat\2020-arm-elf\arm-eabi\lib\gnat\zfp-cortex-m4f\adalib\libgnat.a(s-semiho.o)
 .data.system__semihosting_E
                0x0000000000000000        0x2 C:\gnat\2020-arm-elf\arm-eabi\lib\gnat\zfp-cortex-m4f\adalib\libgnat.a(s-semiho.o)

Memory Configuration

Name             Origin             Length             Attributes
flash            0x0000000000000000 0x0000000000080000 xr
ram              0x0000000020000000 0x0000000000010000 xrw
*default*        0x0000000000000000 0xffffffffffffffff

Linker script and memory map

LOAD main.o
LOAD b__main.o
LOAD C:\Users\JumpStart\Desktop\lehre\asyd\dev\Ada_Drivers_Library-master\boards\MicroBit\obj\zfp_lib_Debug\libada_drivers_library.a
LOAD C:\gnat\2020-arm-elf\arm-eabi\lib\gnat\zfp-cortex-m4f\adalib\libgnat.a
START GROUP
LOAD c:/gnat/2020-arm-elf/bin/../lib/gcc/arm-eabi/9.3.1/thumb/v7e-m/fpv4-sp/hard\libgcc.a
END GROUP
                0x0000000000000000                __DYNAMIC = 0x0
                0x0000000000000800                _DEFAULT_STACK_SIZE = 0x800

.text           0x0000000000000000     0x4f20
 *(.vectors)
 .vectors       0x0000000000000000      0x240 C:\Users\JumpStart\Desktop\lehre\asyd\dev\Ada_Drivers_Library-master\boards\MicroBit\obj\zfp_lib_Debug\libada_drivers_library.a(crt0.o)
                0x0000000000000000                __vectors
 *(.text .text.* .gnu.linkonce.t*)
 .text._ada_main
                0x0000000000000240       0x48 main.o
                0x0000000000000240                _ada_main
 .text.ada_main__Tsec_default_sized_stacksBIP
                0x0000000000000288       0x44 b__main.o
                0x0000000000000288                ada_main__Tsec_default_sized_stacksBIP
 .text.adainit  0x00000000000002cc      0x16c b__main.o
                0x00000000000002cc                adainit
 .text.main     0x0000000000000438       0x1c b__main.o
                0x0000000000000438                main
 .text.ada_main___elabb
                0x0000000000000454       0x1c b__main.o
                0x0000000000000454                ada_main___elabb
 .text.cortex_m__nvic__enable_interrupt
                0x0000000000000470       0x68 C:\Users\JumpStart\Desktop\lehre\asyd\dev\Ada_Drivers_Library-master\boards\MicroBit\obj\zfp_lib_Debug\libada_drivers_library.a(cortex_m-nvic.o)
                0x0000000000000470                cortex_m__nvic__enable_interrupt
 .text.cortex_m__nvic___elabs
                0x00000000000004d8        0xc C:\Users\JumpStart\Desktop\lehre\asyd\dev\Ada_Drivers_Library-master\boards\MicroBit\obj\zfp_lib_Debug\libada_drivers_library.a(cortex_m-nvic.o)
                0x00000000000004d8                cortex_m__nvic___elabs
 *fill*         0x00000000000004e4      0x11c 
 .text          0x0000000000000600       0x58 C:\Users\JumpStart\Desktop\lehre\asyd\dev\Ada_Drivers_Library-master\boards\MicroBit\obj\zfp_lib_Debug\libada_drivers_library.a(crt0.o)
                0x0000000000000600                __gnat_irq_trap
                0x0000000000000600                __unknown_interrupt_handler
                0x0000000000000602                __gnat_sv_call_trap
                0x0000000000000604                __gnat_pend_sv_trap
                0x0000000000000606                __gnat_sys_tick_trap
                0x000000000000060a                _start
 .text.microbit__console__put_line
                0x0000000000000658      0x154 C:\Users\JumpStart\Desktop\lehre\asyd\dev\Ada_Drivers_Library-master\boards\MicroBit\obj\zfp_lib_Debug\libada_drivers_library.a(microbit-console.o)
                0x0000000000000658                microbit__console__put_line
 .text.microbit__console___elabb
                0x00000000000007ac       0x2c C:\Users\JumpStart\Desktop\lehre\asyd\dev\Ada_Drivers_Library-master\boards\MicroBit\obj\zfp_lib_Debug\libada_drivers_library.a(microbit-console.o)
                0x00000000000007ac                microbit__console___elabb
 .text.microbit__display__print_c
                0x00000000000007d8       0xe8 C:\Users\JumpStart\Desktop\lehre\asyd\dev\Ada_Drivers_Library-master\boards\MicroBit\obj\zfp_lib_Debug\libada_drivers_library.a(microbit-display.o)
 .text.microbit__display__initialize
                0x00000000000008c0       0xd8 C:\Users\JumpStart\Desktop\lehre\asyd\dev\Ada_Drivers_Library-master\boards\MicroBit\obj\zfp_lib_Debug\libada_drivers_library.a(microbit-display.o)
 .text.microbit__display__tick_handler
                0x0000000000000998      0x1ec C:\Users\JumpStart\Desktop\lehre\asyd\dev\Ada_Drivers_Library-master\boards\MicroBit\obj\zfp_lib_Debug\libada_drivers_library.a(microbit-display.o)
 .text.microbit__display__update_animation
                0x0000000000000b84      0x110 C:\Users\JumpStart\Desktop\lehre\asyd\dev\Ada_Drivers_Library-master\boards\MicroBit\obj\zfp_lib_Debug\libada_drivers_library.a(microbit-display.o)
 .text.microbit__display__display__2
                0x0000000000000c94       0x64 C:\Users\JumpStart\Desktop\lehre\asyd\dev\Ada_Drivers_Library-master\boards\MicroBit\obj\zfp_lib_Debug\libada_drivers_library.a(microbit-display.o)
                0x0000000000000c94                microbit__display__display__2
 .text.microbit__display__display_async
                0x0000000000000cf8      0x1a4 C:\Users\JumpStart\Desktop\lehre\asyd\dev\Ada_Drivers_Library-master\boards\MicroBit\obj\zfp_lib_Debug\libada_drivers_library.a(microbit-display.o)
                0x0000000000000cf8                microbit__display__display_async
 .text.microbit__display__shift_left
                0x0000000000000e9c       0x80 C:\Users\JumpStart\Desktop\lehre\asyd\dev\Ada_Drivers_Library-master\boards\MicroBit\obj\zfp_lib_Debug\libada_drivers_library.a(microbit-display.o)
                0x0000000000000e9c                microbit__display__shift_left
 .text.microbit__display___elabb
                0x0000000000000f1c      0x100 C:\Users\JumpStart\Desktop\lehre\asyd\dev\Ada_Drivers_Library-master\boards\MicroBit\obj\zfp_lib_Debug\libada_drivers_library.a(microbit-display.o)
                0x0000000000000f1c                microbit__display___elabb
 .text.microbit__time__mb_delaysIP
                0x000000000000101c       0x28 C:\Users\JumpStart\Desktop\lehre\asyd\dev\Ada_Drivers_Library-master\boards\MicroBit\obj\zfp_lib_Debug\libada_drivers_library.a(microbit-time.o)
                0x000000000000101c                microbit__time__mb_delaysIP
 .text.microbit__time___size__2
                0x0000000000001044       0x20 C:\Users\JumpStart\Desktop\lehre\asyd\dev\Ada_Drivers_Library-master\boards\MicroBit\obj\zfp_lib_Debug\libada_drivers_library.a(microbit-time.o)
                0x0000000000001044                microbit__time___size__2
 .text.microbit__time__Oeq
                0x0000000000001064       0x18 C:\Users\JumpStart\Desktop\lehre\asyd\dev\Ada_Drivers_Library-master\boards\MicroBit\obj\zfp_lib_Debug\libada_drivers_library.a(microbit-time.o)
                0x0000000000001064                microbit__time__Oeq
 .text.microbit__time___assign
                0x000000000000107c       0x24 C:\Users\JumpStart\Desktop\lehre\asyd\dev\Ada_Drivers_Library-master\boards\MicroBit\obj\zfp_lib_Debug\libada_drivers_library.a(microbit-time.o)
                0x000000000000107c                microbit__time___assign
 .text.microbit__time__initialize
                0x00000000000010a0       0x7c C:\Users\JumpStart\Desktop\lehre\asyd\dev\Ada_Drivers_Library-master\boards\MicroBit\obj\zfp_lib_Debug\libada_drivers_library.a(microbit-time.o)
 .text.microbit__time__update_clock
                0x000000000000111c       0x24 C:\Users\JumpStart\Desktop\lehre\asyd\dev\Ada_Drivers_Library-master\boards\MicroBit\obj\zfp_lib_Debug\libada_drivers_library.a(microbit-time.o)
 .text.microbit__time__rtc1_irqhandler
                0x0000000000001140       0x80 C:\Users\JumpStart\Desktop\lehre\asyd\dev\Ada_Drivers_Library-master\boards\MicroBit\obj\zfp_lib_Debug\libada_drivers_library.a(microbit-time.o)
 .text.microbit__time__clock
                0x00000000000011c0       0x1c C:\Users\JumpStart\Desktop\lehre\asyd\dev\Ada_Drivers_Library-master\boards\MicroBit\obj\zfp_lib_Debug\libada_drivers_library.a(microbit-time.o)
                0x00000000000011c0                microbit__time__clock
 .text.microbit__time__delay_ms
                0x00000000000011dc       0x38 C:\Users\JumpStart\Desktop\lehre\asyd\dev\Ada_Drivers_Library-master\boards\MicroBit\obj\zfp_lib_Debug\libada_drivers_library.a(microbit-time.o)
                0x00000000000011dc                microbit__time__delay_ms
 .text.microbit__time__tick_subscriber
                0x0000000000001214       0x44 C:\Users\JumpStart\Desktop\lehre\asyd\dev\Ada_Drivers_Library-master\boards\MicroBit\obj\zfp_lib_Debug\libada_drivers_library.a(microbit-time.o)
                0x0000000000001214                microbit__time__tick_subscriber
 .text.microbit__time__tick_subscribe___postconditions.6360
                0x0000000000001258       0x48 C:\Users\JumpStart\Desktop\lehre\asyd\dev\Ada_Drivers_Library-master\boards\MicroBit\obj\zfp_lib_Debug\libada_drivers_library.a(microbit-time.o)
 .text.microbit__time__tick_subscribe
                0x00000000000012a0       0x8c C:\Users\JumpStart\Desktop\lehre\asyd\dev\Ada_Drivers_Library-master\boards\MicroBit\obj\zfp_lib_Debug\libada_drivers_library.a(microbit-time.o)
                0x00000000000012a0                microbit__time__tick_subscribe
 .text.microbit__time__delay_microseconds__2
                0x000000000000132c       0x44 C:\Users\JumpStart\Desktop\lehre\asyd\dev\Ada_Drivers_Library-master\boards\MicroBit\obj\zfp_lib_Debug\libada_drivers_library.a(microbit-time.o)
                0x000000000000132c                microbit__time__delay_microseconds__2
 .text.microbit__time__delay_milliseconds__2
                0x0000000000001370       0x34 C:\Users\JumpStart\Desktop\lehre\asyd\dev\Ada_Drivers_Library-master\boards\MicroBit\obj\zfp_lib_Debug\libada_drivers_library.a(microbit-time.o)
                0x0000000000001370                microbit__time__delay_milliseconds__2
 .text.microbit__time__delay_seconds__2
                0x00000000000013a4       0x58 C:\Users\JumpStart\Desktop\lehre\asyd\dev\Ada_Drivers_Library-master\boards\MicroBit\obj\zfp_lib_Debug\libada_drivers_library.a(microbit-time.o)
                0x00000000000013a4                microbit__time__delay_seconds__2
 .text.microbit__time___elabb
                0x00000000000013fc       0x28 C:\Users\JumpStart\Desktop\lehre\asyd\dev\Ada_Drivers_Library-master\boards\MicroBit\obj\zfp_lib_Debug\libada_drivers_library.a(microbit-time.o)
                0x00000000000013fc                microbit__time___elabb
 .text.nrf__clock__set_low_freq_source
                0x0000000000001424       0x5c C:\Users\JumpStart\Desktop\lehre\asyd\dev\Ada_Drivers_Library-master\boards\MicroBit\obj\zfp_lib_Debug\libada_drivers_library.a(nrf-clock.o)
                0x0000000000001424                nrf__clock__set_low_freq_source
 .text.nrf__clock__low_freq_running
                0x0000000000001480       0x30 C:\Users\JumpStart\Desktop\lehre\asyd\dev\Ada_Drivers_Library-master\boards\MicroBit\obj\zfp_lib_Debug\libada_drivers_library.a(nrf-clock.o)
                0x0000000000001480                nrf__clock__low_freq_running
 .text.nrf__clock__start_low_freq
                0x00000000000014b0       0x10 C:\Users\JumpStart\Desktop\lehre\asyd\dev\Ada_Drivers_Library-master\boards\MicroBit\obj\zfp_lib_Debug\libada_drivers_library.a(nrf-clock.o)
                0x00000000000014b0                nrf__clock__start_low_freq
 .text.nrf__device__errata_12
                0x00000000000014c0       0x58 C:\Users\JumpStart\Desktop\lehre\asyd\dev\Ada_Drivers_Library-master\boards\MicroBit\obj\zfp_lib_Debug\libada_drivers_library.a(nrf-device.o)
 .text.nrf__device__errata_16
                0x0000000000001518       0x44 C:\Users\JumpStart\Desktop\lehre\asyd\dev\Ada_Drivers_Library-master\boards\MicroBit\obj\zfp_lib_Debug\libada_drivers_library.a(nrf-device.o)
 .text.nrf__device__errata_31
                0x000000000000155c       0x10 C:\Users\JumpStart\Desktop\lehre\asyd\dev\Ada_Drivers_Library-master\boards\MicroBit\obj\zfp_lib_Debug\libada_drivers_library.a(nrf-device.o)
 .text.nrf__device__errata_32
                0x000000000000156c       0x10 C:\Users\JumpStart\Desktop\lehre\asyd\dev\Ada_Drivers_Library-master\boards\MicroBit\obj\zfp_lib_Debug\libada_drivers_library.a(nrf-device.o)
 .text.nrf__device__errata_36
                0x000000000000157c       0x10 C:\Users\JumpStart\Desktop\lehre\asyd\dev\Ada_Drivers_Library-master\boards\MicroBit\obj\zfp_lib_Debug\libada_drivers_library.a(nrf-device.o)
 .text.nrf__device__errata_37
                0x000000000000158c       0x10 C:\Users\JumpStart\Desktop\lehre\asyd\dev\Ada_Drivers_Library-master\boards\MicroBit\obj\zfp_lib_Debug\libada_drivers_library.a(nrf-device.o)
 .text.nrf__device__errata_57
                0x000000000000159c       0x10 C:\Users\JumpStart\Desktop\lehre\asyd\dev\Ada_Drivers_Library-master\boards\MicroBit\obj\zfp_lib_Debug\libada_drivers_library.a(nrf-device.o)
 .text.nrf__device__errata_66
                0x00000000000015ac       0x44 C:\Users\JumpStart\Desktop\lehre\asyd\dev\Ada_Drivers_Library-master\boards\MicroBit\obj\zfp_lib_Debug\libada_drivers_library.a(nrf-device.o)
 .text.nrf__device__errata_108
                0x00000000000015f0       0x10 C:\Users\JumpStart\Desktop\lehre\asyd\dev\Ada_Drivers_Library-master\boards\MicroBit\obj\zfp_lib_Debug\libada_drivers_library.a(nrf-device.o)
 .text.nrf__device__errata_136
                0x0000000000001600       0x10 C:\Users\JumpStart\Desktop\lehre\asyd\dev\Ada_Drivers_Library-master\boards\MicroBit\obj\zfp_lib_Debug\libada_drivers_library.a(nrf-device.o)
 .text.nrf__device__errata_182
                0x0000000000001610       0x40 C:\Users\JumpStart\Desktop\lehre\asyd\dev\Ada_Drivers_Library-master\boards\MicroBit\obj\zfp_lib_Debug\libada_drivers_library.a(nrf-device.o)
 .text.nrf__device___elabb
                0x0000000000001650      0x408 C:\Users\JumpStart\Desktop\lehre\asyd\dev\Ada_Drivers_Library-master\boards\MicroBit\obj\zfp_lib_Debug\libada_drivers_library.a(nrf-device.o)
                0x0000000000001650                nrf__device___elabb
 .text.nrf__device___elabs
                0x0000000000001a58      0x4ac C:\Users\JumpStart\Desktop\lehre\asyd\dev\Ada_Drivers_Library-master\boards\MicroBit\obj\zfp_lib_Debug\libada_drivers_library.a(nrf-device.o)
                0x0000000000001a58                nrf__device___elabs
 .text.nrf__events__enable_interrupt
                0x0000000000001f04       0x70 C:\Users\JumpStart\Desktop\lehre\asyd\dev\Ada_Drivers_Library-master\boards\MicroBit\obj\zfp_lib_Debug\libada_drivers_library.a(nrf-events.o)
                0x0000000000001f04                nrf__events__enable_interrupt
 .text.nrf__events__clear
                0x0000000000001f74       0x30 C:\Users\JumpStart\Desktop\lehre\asyd\dev\Ada_Drivers_Library-master\boards\MicroBit\obj\zfp_lib_Debug\libada_drivers_library.a(nrf-events.o)
                0x0000000000001f74                nrf__events__clear
 .text.nrf__gpio__gpio_configurationIP
                0x0000000000001fa4       0x24 C:\Users\JumpStart\Desktop\lehre\asyd\dev\Ada_Drivers_Library-master\boards\MicroBit\obj\zfp_lib_Debug\libada_drivers_library.a(nrf-gpio.o)
                0x0000000000001fa4                nrf__gpio__gpio_configurationIP
 .text.nrf__gpio___size
                0x0000000000001fc8       0x20 C:\Users\JumpStart\Desktop\lehre\asyd\dev\Ada_Drivers_Library-master\boards\MicroBit\obj\zfp_lib_Debug\libada_drivers_library.a(nrf-gpio.o)
                0x0000000000001fc8                nrf__gpio___size
 .text.nrf__gpio__Oeq
                0x0000000000001fe8       0x34 C:\Users\JumpStart\Desktop\lehre\asyd\dev\Ada_Drivers_Library-master\boards\MicroBit\obj\zfp_lib_Debug\libada_drivers_library.a(nrf-gpio.o)
                0x0000000000001fe8                nrf__gpio__Oeq
 .text.nrf__gpio___assign
                0x000000000000201c       0x24 C:\Users\JumpStart\Desktop\lehre\asyd\dev\Ada_Drivers_Library-master\boards\MicroBit\obj\zfp_lib_Debug\libada_drivers_library.a(nrf-gpio.o)
                0x000000000000201c                nrf__gpio___assign
 .text.nrf__gpio__support
                0x0000000000002040       0x2c C:\Users\JumpStart\Desktop\lehre\asyd\dev\Ada_Drivers_Library-master\boards\MicroBit\obj\zfp_lib_Debug\libada_drivers_library.a(nrf-gpio.o)
                0x0000000000002040                nrf__gpio__support
 .text.nrf__gpio__mode
                0x000000000000206c       0xb0 C:\Users\JumpStart\Desktop\lehre\asyd\dev\Ada_Drivers_Library-master\boards\MicroBit\obj\zfp_lib_Debug\libada_drivers_library.a(nrf-gpio.o)
                0x000000000000206c                nrf__gpio__mode
 .text.nrf__gpio__set_mode
                0x000000000000211c      0x1a8 C:\Users\JumpStart\Desktop\lehre\asyd\dev\Ada_Drivers_Library-master\boards\MicroBit\obj\zfp_lib_Debug\libada_drivers_library.a(nrf-gpio.o)
                0x000000000000211c                nrf__gpio__set_mode
 .text.nrf__gpio__set
                0x00000000000022c4       0x80 C:\Users\JumpStart\Desktop\lehre\asyd\dev\Ada_Drivers_Library-master\boards\MicroBit\obj\zfp_lib_Debug\libada_drivers_library.a(nrf-gpio.o)
                0x00000000000022c4                nrf__gpio__set
 .text.nrf__gpio__pull_resistor
                0x0000000000002344       0xbc C:\Users\JumpStart\Desktop\lehre\asyd\dev\Ada_Drivers_Library-master\boards\MicroBit\obj\zfp_lib_Debug\libada_drivers_library.a(nrf-gpio.o)
                0x0000000000002344                nrf__gpio__pull_resistor
 .text.nrf__gpio__set_pull_resistor
                0x0000000000002400       0xac C:\Users\JumpStart\Desktop\lehre\asyd\dev\Ada_Drivers_Library-master\boards\MicroBit\obj\zfp_lib_Debug\libada_drivers_library.a(nrf-gpio.o)
                0x0000000000002400                nrf__gpio__set_pull_resistor
 .text.nrf__gpio__set__2
                0x00000000000024ac       0xa4 C:\Users\JumpStart\Desktop\lehre\asyd\dev\Ada_Drivers_Library-master\boards\MicroBit\obj\zfp_lib_Debug\libada_drivers_library.a(nrf-gpio.o)
                0x00000000000024ac                nrf__gpio__set__2
 .text.nrf__gpio__clear
                0x0000000000002550       0xa8 C:\Users\JumpStart\Desktop\lehre\asyd\dev\Ada_Drivers_Library-master\boards\MicroBit\obj\zfp_lib_Debug\libada_drivers_library.a(nrf-gpio.o)
                0x0000000000002550                nrf__gpio__clear
 .text.nrf__gpio__toggle
                0x00000000000025f8       0x48 C:\Users\JumpStart\Desktop\lehre\asyd\dev\Ada_Drivers_Library-master\boards\MicroBit\obj\zfp_lib_Debug\libada_drivers_library.a(nrf-gpio.o)
                0x00000000000025f8                nrf__gpio__toggle
 .text.nrf__gpio__configure_io
                0x0000000000002640      0x494 C:\Users\JumpStart\Desktop\lehre\asyd\dev\Ada_Drivers_Library-master\boards\MicroBit\obj\zfp_lib_Debug\libada_drivers_library.a(nrf-gpio.o)
                0x0000000000002640                nrf__gpio__configure_io
 .text.nrf__interrupts__enable
                0x0000000000002ad4       0x18 C:\Users\JumpStart\Desktop\lehre\asyd\dev\Ada_Drivers_Library-master\boards\MicroBit\obj\zfp_lib_Debug\libada_drivers_library.a(nrf-interrupts.o)
                0x0000000000002ad4                nrf__interrupts__enable
 .text.nrf__interrupts__register
                0x0000000000002aec       0x34 C:\Users\JumpStart\Desktop\lehre\asyd\dev\Ada_Drivers_Library-master\boards\MicroBit\obj\zfp_lib_Debug\libada_drivers_library.a(nrf-interrupts.o)
                0x0000000000002aec                nrf__interrupts__register
 .text.__adl_irq_handler
                0x0000000000002b20       0x5c C:\Users\JumpStart\Desktop\lehre\asyd\dev\Ada_Drivers_Library-master\boards\MicroBit\obj\zfp_lib_Debug\libada_drivers_library.a(nrf-interrupts.o)
                0x0000000000002b20                __adl_irq_handler
 .text.nrf__interrupts___elabb
                0x0000000000002b7c       0x18 C:\Users\JumpStart\Desktop\lehre\asyd\dev\Ada_Drivers_Library-master\boards\MicroBit\obj\zfp_lib_Debug\libada_drivers_library.a(nrf-interrupts.o)
                0x0000000000002b7c                nrf__interrupts___elabb
 .text.nrf__rtc__real_time_counterIP
                0x0000000000002b94       0x1c C:\Users\JumpStart\Desktop\lehre\asyd\dev\Ada_Drivers_Library-master\boards\MicroBit\obj\zfp_lib_Debug\libada_drivers_library.a(nrf-rtc.o)
                0x0000000000002b94                nrf__rtc__real_time_counterIP
 .text.nrf__rtc__start
                0x0000000000002bb0       0x18 C:\Users\JumpStart\Desktop\lehre\asyd\dev\Ada_Drivers_Library-master\boards\MicroBit\obj\zfp_lib_Debug\libada_drivers_library.a(nrf-rtc.o)
                0x0000000000002bb0                nrf__rtc__start
 .text.nrf__rtc__stop
                0x0000000000002bc8       0x18 C:\Users\JumpStart\Desktop\lehre\asyd\dev\Ada_Drivers_Library-master\boards\MicroBit\obj\zfp_lib_Debug\libada_drivers_library.a(nrf-rtc.o)
                0x0000000000002bc8                nrf__rtc__stop
 .text.nrf__rtc__clear
                0x0000000000002be0       0x18 C:\Users\JumpStart\Desktop\lehre\asyd\dev\Ada_Drivers_Library-master\boards\MicroBit\obj\zfp_lib_Debug\libada_drivers_library.a(nrf-rtc.o)
                0x0000000000002be0                nrf__rtc__clear
 .text.nrf__rtc__set_prescaler
                0x0000000000002bf8       0x34 C:\Users\JumpStart\Desktop\lehre\asyd\dev\Ada_Drivers_Library-master\boards\MicroBit\obj\zfp_lib_Debug\libada_drivers_library.a(nrf-rtc.o)
                0x0000000000002bf8                nrf__rtc__set_prescaler
 .text.nrf__rtc__set_compare
                0x0000000000002c2c       0x44 C:\Users\JumpStart\Desktop\lehre\asyd\dev\Ada_Drivers_Library-master\boards\MicroBit\obj\zfp_lib_Debug\libada_drivers_library.a(nrf-rtc.o)
                0x0000000000002c2c                nrf__rtc__set_compare
 .text.nrf__rtc__enable_event
                0x0000000000002c70      0x164 C:\Users\JumpStart\Desktop\lehre\asyd\dev\Ada_Drivers_Library-master\boards\MicroBit\obj\zfp_lib_Debug\libada_drivers_library.a(nrf-rtc.o)
                0x0000000000002c70                nrf__rtc__enable_event
 .text.nrf__spi_master__spi_masterIP
                0x0000000000002dd4       0x30 C:\Users\JumpStart\Desktop\lehre\asyd\dev\Ada_Drivers_Library-master\boards\MicroBit\obj\zfp_lib_Debug\libada_drivers_library.a(nrf-spi_master.o)
                0x0000000000002dd4                nrf__spi_master__spi_masterIP
 .text.nrf__spi_master___size__2
                0x0000000000002e04       0x20 C:\Users\JumpStart\Desktop\lehre\asyd\dev\Ada_Drivers_Library-master\boards\MicroBit\obj\zfp_lib_Debug\libada_drivers_library.a(nrf-spi_master.o)
                0x0000000000002e04                nrf__spi_master___size__2
 .text.nrf__spi_master__Oeq
                0x0000000000002e24       0x28 C:\Users\JumpStart\Desktop\lehre\asyd\dev\Ada_Drivers_Library-master\boards\MicroBit\obj\zfp_lib_Debug\libada_drivers_library.a(nrf-spi_master.o)
                0x0000000000002e24                nrf__spi_master__Oeq
 .text.nrf__spi_master___assign
                0x0000000000002e4c       0x3c C:\Users\JumpStart\Desktop\lehre\asyd\dev\Ada_Drivers_Library-master\boards\MicroBit\obj\zfp_lib_Debug\libada_drivers_library.a(nrf-spi_master.o)
                0x0000000000002e4c                nrf__spi_master___assign
 .text.nrf__spi_master__enable___postconditions.5988
                0x0000000000002e88       0x3c C:\Users\JumpStart\Desktop\lehre\asyd\dev\Ada_Drivers_Library-master\boards\MicroBit\obj\zfp_lib_Debug\libada_drivers_library.a(nrf-spi_master.o)
 .text.nrf__spi_master__enable
                0x0000000000002ec4       0x3c C:\Users\JumpStart\Desktop\lehre\asyd\dev\Ada_Drivers_Library-master\boards\MicroBit\obj\zfp_lib_Debug\libada_drivers_library.a(nrf-spi_master.o)
                0x0000000000002ec4                nrf__spi_master__enable
 .text.nrf__spi_master__disable___postconditions.5995
                0x0000000000002f00       0x34 C:\Users\JumpStart\Desktop\lehre\asyd\dev\Ada_Drivers_Library-master\boards\MicroBit\obj\zfp_lib_Debug\libada_drivers_library.a(nrf-spi_master.o)
 .text.nrf__spi_master__disable
                0x0000000000002f34       0x3c C:\Users\JumpStart\Desktop\lehre\asyd\dev\Ada_Drivers_Library-master\boards\MicroBit\obj\zfp_lib_Debug\libada_drivers_library.a(nrf-spi_master.o)
                0x0000000000002f34                nrf__spi_master__disable
 .text.nrf__spi_master__enabled
                0x0000000000002f70       0x34 C:\Users\JumpStart\Desktop\lehre\asyd\dev\Ada_Drivers_Library-master\boards\MicroBit\obj\zfp_lib_Debug\libada_drivers_library.a(nrf-spi_master.o)
                0x0000000000002f70                nrf__spi_master__enabled
 .text.nrf__spi_master__configure
                0x0000000000002fa4      0x174 C:\Users\JumpStart\Desktop\lehre\asyd\dev\Ada_Drivers_Library-master\boards\MicroBit\obj\zfp_lib_Debug\libada_drivers_library.a(nrf-spi_master.o)
                0x0000000000002fa4                nrf__spi_master__configure
 .text.nrf__spi_master__disconnect
                0x0000000000003118       0x54 C:\Users\JumpStart\Desktop\lehre\asyd\dev\Ada_Drivers_Library-master\boards\MicroBit\obj\zfp_lib_Debug\libada_drivers_library.a(nrf-spi_master.o)
                0x0000000000003118                nrf__spi_master__disconnect
 .text.nrf__spi_master__data_size
                0x000000000000316c       0x18 C:\Users\JumpStart\Desktop\lehre\asyd\dev\Ada_Drivers_Library-master\boards\MicroBit\obj\zfp_lib_Debug\libada_drivers_library.a(nrf-spi_master.o)
                0x000000000000316c                nrf__spi_master__data_size
 .text.nrf__spi_master__transmit
                0x0000000000003184       0xc4 C:\Users\JumpStart\Desktop\lehre\asyd\dev\Ada_Drivers_Library-master\boards\MicroBit\obj\zfp_lib_Debug\libada_drivers_library.a(nrf-spi_master.o)
                0x0000000000003184                nrf__spi_master__transmit
 .text.nrf__spi_master__transmit__2
                0x0000000000003248      0x258 C:\Users\JumpStart\Desktop\lehre\asyd\dev\Ada_Drivers_Library-master\boards\MicroBit\obj\zfp_lib_Debug\libada_drivers_library.a(nrf-spi_master.o)
                0x0000000000003248                nrf__spi_master__transmit__2
 .text.nrf__spi_master__receive
                0x00000000000034a0       0xbc C:\Users\JumpStart\Desktop\lehre\asyd\dev\Ada_Drivers_Library-master\boards\MicroBit\obj\zfp_lib_Debug\libada_drivers_library.a(nrf-spi_master.o)
                0x00000000000034a0                nrf__spi_master__receive
 .text.nrf__spi_master__receive__2
                0x000000000000355c      0x224 C:\Users\JumpStart\Desktop\lehre\asyd\dev\Ada_Drivers_Library-master\boards\MicroBit\obj\zfp_lib_Debug\libada_drivers_library.a(nrf-spi_master.o)
                0x000000000000355c                nrf__spi_master__receive__2
 .text.nrf__tasks__trigger
                0x0000000000003780       0x30 C:\Users\JumpStart\Desktop\lehre\asyd\dev\Ada_Drivers_Library-master\boards\MicroBit\obj\zfp_lib_Debug\libada_drivers_library.a(nrf-tasks.o)
                0x0000000000003780                nrf__tasks__trigger
 .text.nrf__timers__timerIP
                0x00000000000037b0       0x30 C:\Users\JumpStart\Desktop\lehre\asyd\dev\Ada_Drivers_Library-master\boards\MicroBit\obj\zfp_lib_Debug\libada_drivers_library.a(nrf-timers.o)
                0x00000000000037b0                nrf__timers__timerIP
 .text.nrf__timers___size
                0x00000000000037e0       0x20 C:\Users\JumpStart\Desktop\lehre\asyd\dev\Ada_Drivers_Library-master\boards\MicroBit\obj\zfp_lib_Debug\libada_drivers_library.a(nrf-timers.o)
                0x00000000000037e0                nrf__timers___size
 .text.nrf__timers__Oeq
                0x0000000000003800       0x28 C:\Users\JumpStart\Desktop\lehre\asyd\dev\Ada_Drivers_Library-master\boards\MicroBit\obj\zfp_lib_Debug\libada_drivers_library.a(nrf-timers.o)
                0x0000000000003800                nrf__timers__Oeq
 .text.nrf__timers___assign
                0x0000000000003828       0x3c C:\Users\JumpStart\Desktop\lehre\asyd\dev\Ada_Drivers_Library-master\boards\MicroBit\obj\zfp_lib_Debug\libada_drivers_library.a(nrf-timers.o)
                0x0000000000003828                nrf__timers___assign
 .text.nrf__timers__start
                0x0000000000003864       0x1c C:\Users\JumpStart\Desktop\lehre\asyd\dev\Ada_Drivers_Library-master\boards\MicroBit\obj\zfp_lib_Debug\libada_drivers_library.a(nrf-timers.o)
                0x0000000000003864                nrf__timers__start
 .text.nrf__timers__stop
                0x0000000000003880       0x1c C:\Users\JumpStart\Desktop\lehre\asyd\dev\Ada_Drivers_Library-master\boards\MicroBit\obj\zfp_lib_Debug\libada_drivers_library.a(nrf-timers.o)
                0x0000000000003880                nrf__timers__stop
 .text.nrf__timers__clear
                0x000000000000389c       0x1c C:\Users\JumpStart\Desktop\lehre\asyd\dev\Ada_Drivers_Library-master\boards\MicroBit\obj\zfp_lib_Debug\libada_drivers_library.a(nrf-timers.o)
                0x000000000000389c                nrf__timers__clear
 .text.nrf__timers__set_prescaler
                0x00000000000038b8       0x38 C:\Users\JumpStart\Desktop\lehre\asyd\dev\Ada_Drivers_Library-master\boards\MicroBit\obj\zfp_lib_Debug\libada_drivers_library.a(nrf-timers.o)
                0x00000000000038b8                nrf__timers__set_prescaler
 .text.nrf__timers__set_mode
                0x00000000000038f0       0x50 C:\Users\JumpStart\Desktop\lehre\asyd\dev\Ada_Drivers_Library-master\boards\MicroBit\obj\zfp_lib_Debug\libada_drivers_library.a(nrf-timers.o)
                0x00000000000038f0                nrf__timers__set_mode
 .text.nrf__timers__set_bitmode___postconditions.6142
                0x0000000000003940       0x38 C:\Users\JumpStart\Desktop\lehre\asyd\dev\Ada_Drivers_Library-master\boards\MicroBit\obj\zfp_lib_Debug\libada_drivers_library.a(nrf-timers.o)
 .text.nrf__timers__set_bitmode
                0x0000000000003978       0x80 C:\Users\JumpStart\Desktop\lehre\asyd\dev\Ada_Drivers_Library-master\boards\MicroBit\obj\zfp_lib_Debug\libada_drivers_library.a(nrf-timers.o)
                0x0000000000003978                nrf__timers__set_bitmode
 .text.nrf__timers__bitmode
                0x00000000000039f8       0x50 C:\Users\JumpStart\Desktop\lehre\asyd\dev\Ada_Drivers_Library-master\boards\MicroBit\obj\zfp_lib_Debug\libada_drivers_library.a(nrf-timers.o)
                0x00000000000039f8                nrf__timers__bitmode
 .text.nrf__timers__compare_interrupt
                0x0000000000003a48       0xb8 C:\Users\JumpStart\Desktop\lehre\asyd\dev\Ada_Drivers_Library-master\boards\MicroBit\obj\zfp_lib_Debug\libada_drivers_library.a(nrf-timers.o)
                0x0000000000003a48                nrf__timers__compare_interrupt
 .text.nrf__timers__compare_shortcut
                0x0000000000003b00      0x180 C:\Users\JumpStart\Desktop\lehre\asyd\dev\Ada_Drivers_Library-master\boards\MicroBit\obj\zfp_lib_Debug\libada_drivers_library.a(nrf-timers.o)
                0x0000000000003b00                nrf__timers__compare_shortcut
 .text.nrf__timers__set_compare
                0x0000000000003c80       0x2c C:\Users\JumpStart\Desktop\lehre\asyd\dev\Ada_Drivers_Library-master\boards\MicroBit\obj\zfp_lib_Debug\libada_drivers_library.a(nrf-timers.o)
                0x0000000000003c80                nrf__timers__set_compare
 .text.nrf__timers__capture
                0x0000000000003cac       0x28 C:\Users\JumpStart\Desktop\lehre\asyd\dev\Ada_Drivers_Library-master\boards\MicroBit\obj\zfp_lib_Debug\libada_drivers_library.a(nrf-timers.o)
                0x0000000000003cac                nrf__timers__capture
 .text.nrf__timers__capture__2
                0x0000000000003cd4       0x30 C:\Users\JumpStart\Desktop\lehre\asyd\dev\Ada_Drivers_Library-master\boards\MicroBit\obj\zfp_lib_Debug\libada_drivers_library.a(nrf-timers.o)
                0x0000000000003cd4                nrf__timers__capture__2
 .text.nrf__timers__cc_register
                0x0000000000003d04       0x2c C:\Users\JumpStart\Desktop\lehre\asyd\dev\Ada_Drivers_Library-master\boards\MicroBit\obj\zfp_lib_Debug\libada_drivers_library.a(nrf-timers.o)
                0x0000000000003d04                nrf__timers__cc_register
 .text.nrf__timers__start_task
                0x0000000000003d30       0x1c C:\Users\JumpStart\Desktop\lehre\asyd\dev\Ada_Drivers_Library-master\boards\MicroBit\obj\zfp_lib_Debug\libada_drivers_library.a(nrf-timers.o)
                0x0000000000003d30                nrf__timers__start_task
 .text.nrf__timers__stop_task
                0x0000000000003d4c       0x1c C:\Users\JumpStart\Desktop\lehre\asyd\dev\Ada_Drivers_Library-master\boards\MicroBit\obj\zfp_lib_Debug\libada_drivers_library.a(nrf-timers.o)
                0x0000000000003d4c                nrf__timers__stop_task
 .text.nrf__timers__count_task
                0x0000000000003d68       0x1c C:\Users\JumpStart\Desktop\lehre\asyd\dev\Ada_Drivers_Library-master\boards\MicroBit\obj\zfp_lib_Debug\libada_drivers_library.a(nrf-timers.o)
                0x0000000000003d68                nrf__timers__count_task
 .text.nrf__timers__clear_task
                0x0000000000003d84       0x1c C:\Users\JumpStart\Desktop\lehre\asyd\dev\Ada_Drivers_Library-master\boards\MicroBit\obj\zfp_lib_Debug\libada_drivers_library.a(nrf-timers.o)
                0x0000000000003d84                nrf__timers__clear_task
 .text.nrf__timers__capture_task
                0x0000000000003da0       0x28 C:\Users\JumpStart\Desktop\lehre\asyd\dev\Ada_Drivers_Library-master\boards\MicroBit\obj\zfp_lib_Debug\libada_drivers_library.a(nrf-timers.o)
                0x0000000000003da0                nrf__timers__capture_task
 .text.nrf__timers__compare_event
                0x0000000000003dc8       0x28 C:\Users\JumpStart\Desktop\lehre\asyd\dev\Ada_Drivers_Library-master\boards\MicroBit\obj\zfp_lib_Debug\libada_drivers_library.a(nrf-timers.o)
                0x0000000000003dc8                nrf__timers__compare_event
 .text.nrf__twi__twi_masterIP
                0x0000000000003df0       0x34 C:\Users\JumpStart\Desktop\lehre\asyd\dev\Ada_Drivers_Library-master\boards\MicroBit\obj\zfp_lib_Debug\libada_drivers_library.a(nrf-twi.o)
                0x0000000000003df0                nrf__twi__twi_masterIP
 .text.nrf__twi___size__2
                0x0000000000003e24       0x20 C:\Users\JumpStart\Desktop\lehre\asyd\dev\Ada_Drivers_Library-master\boards\MicroBit\obj\zfp_lib_Debug\libada_drivers_library.a(nrf-twi.o)
                0x0000000000003e24                nrf__twi___size__2
 .text.nrf__twi__Oeq
                0x0000000000003e44       0x40 C:\Users\JumpStart\Desktop\lehre\asyd\dev\Ada_Drivers_Library-master\boards\MicroBit\obj\zfp_lib_Debug\libada_drivers_library.a(nrf-twi.o)
                0x0000000000003e44                nrf__twi__Oeq
 .text.nrf__twi___assign
                0x0000000000003e84       0x3c C:\Users\JumpStart\Desktop\lehre\asyd\dev\Ada_Drivers_Library-master\boards\MicroBit\obj\zfp_lib_Debug\libada_drivers_library.a(nrf-twi.o)
                0x0000000000003e84                nrf__twi___assign
 .text.nrf__twi__stop_sequence
                0x0000000000003ec0       0x34 C:\Users\JumpStart\Desktop\lehre\asyd\dev\Ada_Drivers_Library-master\boards\MicroBit\obj\zfp_lib_Debug\libada_drivers_library.a(nrf-twi.o)
 .text.nrf__twi__enable
                0x0000000000003ef4       0x2c C:\Users\JumpStart\Desktop\lehre\asyd\dev\Ada_Drivers_Library-master\boards\MicroBit\obj\zfp_lib_Debug\libada_drivers_library.a(nrf-twi.o)
                0x0000000000003ef4                nrf__twi__enable
 .text.nrf__twi__disable
                0x0000000000003f20       0x2c C:\Users\JumpStart\Desktop\lehre\asyd\dev\Ada_Drivers_Library-master\boards\MicroBit\obj\zfp_lib_Debug\libada_drivers_library.a(nrf-twi.o)
                0x0000000000003f20                nrf__twi__disable
 .text.nrf__twi__enabled
                0x0000000000003f4c       0x34 C:\Users\JumpStart\Desktop\lehre\asyd\dev\Ada_Drivers_Library-master\boards\MicroBit\obj\zfp_lib_Debug\libada_drivers_library.a(nrf-twi.o)
                0x0000000000003f4c                nrf__twi__enabled
 .text.nrf__twi__configure
                0x0000000000003f80       0x7c C:\Users\JumpStart\Desktop\lehre\asyd\dev\Ada_Drivers_Library-master\boards\MicroBit\obj\zfp_lib_Debug\libada_drivers_library.a(nrf-twi.o)
                0x0000000000003f80                nrf__twi__configure
 .text.nrf__twi__disconnect
                0x0000000000003ffc       0x2c C:\Users\JumpStart\Desktop\lehre\asyd\dev\Ada_Drivers_Library-master\boards\MicroBit\obj\zfp_lib_Debug\libada_drivers_library.a(nrf-twi.o)
                0x0000000000003ffc                nrf__twi__disconnect
 .text.nrf__twi__master_transmit
                0x0000000000004028      0x1a4 C:\Users\JumpStart\Desktop\lehre\asyd\dev\Ada_Drivers_Library-master\boards\MicroBit\obj\zfp_lib_Debug\libada_drivers_library.a(nrf-twi.o)
                0x0000000000004028                nrf__twi__master_transmit
 .text.nrf__twi__master_receive
                0x00000000000041cc      0x1fc C:\Users\JumpStart\Desktop\lehre\asyd\dev\Ada_Drivers_Library-master\boards\MicroBit\obj\zfp_lib_Debug\libada_drivers_library.a(nrf-twi.o)
                0x00000000000041cc                nrf__twi__master_receive
 .text.nrf__twi__mem_write
                0x00000000000043c8      0x140 C:\Users\JumpStart\Desktop\lehre\asyd\dev\Ada_Drivers_Library-master\boards\MicroBit\obj\zfp_lib_Debug\libada_drivers_library.a(nrf-twi.o)
                0x00000000000043c8                nrf__twi__mem_write
 .text.nrf__twi__mem_read
                0x0000000000004508      0x140 C:\Users\JumpStart\Desktop\lehre\asyd\dev\Ada_Drivers_Library-master\boards\MicroBit\obj\zfp_lib_Debug\libada_drivers_library.a(nrf-twi.o)
                0x0000000000004508                nrf__twi__mem_read
 .text.nrf__uart__uart_deviceIP
                0x0000000000004648       0x34 C:\Users\JumpStart\Desktop\lehre\asyd\dev\Ada_Drivers_Library-master\boards\MicroBit\obj\zfp_lib_Debug\libada_drivers_library.a(nrf-uart.o)
                0x0000000000004648                nrf__uart__uart_deviceIP
 .text.nrf__uart___size__2
                0x000000000000467c       0x20 C:\Users\JumpStart\Desktop\lehre\asyd\dev\Ada_Drivers_Library-master\boards\MicroBit\obj\zfp_lib_Debug\libada_drivers_library.a(nrf-uart.o)
                0x000000000000467c                nrf__uart___size__2
 .text.nrf__uart__Oeq
                0x000000000000469c       0x40 C:\Users\JumpStart\Desktop\lehre\asyd\dev\Ada_Drivers_Library-master\boards\MicroBit\obj\zfp_lib_Debug\libada_drivers_library.a(nrf-uart.o)
                0x000000000000469c                nrf__uart__Oeq
 .text.nrf__uart___assign
                0x00000000000046dc       0x3c C:\Users\JumpStart\Desktop\lehre\asyd\dev\Ada_Drivers_Library-master\boards\MicroBit\obj\zfp_lib_Debug\libada_drivers_library.a(nrf-uart.o)
                0x00000000000046dc                nrf__uart___assign
 .text.nrf__uart__data_size
                0x0000000000004718       0x18 C:\Users\JumpStart\Desktop\lehre\asyd\dev\Ada_Drivers_Library-master\boards\MicroBit\obj\zfp_lib_Debug\libada_drivers_library.a(nrf-uart.o)
                0x0000000000004718                nrf__uart__data_size
 .text.nrf__uart__configure
                0x0000000000004730       0x48 C:\Users\JumpStart\Desktop\lehre\asyd\dev\Ada_Drivers_Library-master\boards\MicroBit\obj\zfp_lib_Debug\libada_drivers_library.a(nrf-uart.o)
                0x0000000000004730                nrf__uart__configure
 .text.nrf__uart__enable
                0x0000000000004778       0x84 C:\Users\JumpStart\Desktop\lehre\asyd\dev\Ada_Drivers_Library-master\boards\MicroBit\obj\zfp_lib_Debug\libada_drivers_library.a(nrf-uart.o)
                0x0000000000004778                nrf__uart__enable
 .text.nrf__uart__disable
                0x00000000000047fc       0x54 C:\Users\JumpStart\Desktop\lehre\asyd\dev\Ada_Drivers_Library-master\boards\MicroBit\obj\zfp_lib_Debug\libada_drivers_library.a(nrf-uart.o)
                0x00000000000047fc                nrf__uart__disable
 .text.nrf__uart__enable_flow_control
                0x0000000000004850       0x48 C:\Users\JumpStart\Desktop\lehre\asyd\dev\Ada_Drivers_Library-master\boards\MicroBit\obj\zfp_lib_Debug\libada_drivers_library.a(nrf-uart.o)
                0x0000000000004850                nrf__uart__enable_flow_control
 .text.nrf__uart__disable_flow_control
                0x0000000000004898       0x44 C:\Users\JumpStart\Desktop\lehre\asyd\dev\Ada_Drivers_Library-master\boards\MicroBit\obj\zfp_lib_Debug\libada_drivers_library.a(nrf-uart.o)
                0x0000000000004898                nrf__uart__disable_flow_control
 .text.nrf__uart__transmit
                0x00000000000048dc       0xa8 C:\Users\JumpStart\Desktop\lehre\asyd\dev\Ada_Drivers_Library-master\boards\MicroBit\obj\zfp_lib_Debug\libada_drivers_library.a(nrf-uart.o)
                0x00000000000048dc                nrf__uart__transmit
 .text.nrf__uart__receive
                0x0000000000004984       0xa0 C:\Users\JumpStart\Desktop\lehre\asyd\dev\Ada_Drivers_Library-master\boards\MicroBit\obj\zfp_lib_Debug\libada_drivers_library.a(nrf-uart.o)
                0x0000000000004984                nrf__uart__receive
 .text.nrf__uart__transmit__2
                0x0000000000004a24       0x3c C:\Users\JumpStart\Desktop\lehre\asyd\dev\Ada_Drivers_Library-master\boards\MicroBit\obj\zfp_lib_Debug\libada_drivers_library.a(nrf-uart.o)
                0x0000000000004a24                nrf__uart__transmit__2
 .text.nrf__uart__receive__2
                0x0000000000004a60       0x3c C:\Users\JumpStart\Desktop\lehre\asyd\dev\Ada_Drivers_Library-master\boards\MicroBit\obj\zfp_lib_Debug\libada_drivers_library.a(nrf-uart.o)
                0x0000000000004a60                nrf__uart__receive__2
 .text.nrf_svd__gpio__pin_cnf_pull_fieldRP
                0x0000000000004a9c       0x40 C:\Users\JumpStart\Desktop\lehre\asyd\dev\Ada_Drivers_Library-master\boards\MicroBit\obj\zfp_lib_Debug\libada_drivers_library.a(nrf_svd-gpio.o)
                0x0000000000004a9c                nrf_svd__gpio__pin_cnf_pull_fieldRP
 .text.nrf_svd__twi__errorsrc_registerIP
                0x0000000000004adc       0x4c C:\Users\JumpStart\Desktop\lehre\asyd\dev\Ada_Drivers_Library-master\boards\MicroBit\obj\zfp_lib_Debug\libada_drivers_library.a(nrf_svd-twi.o)
                0x0000000000004adc                nrf_svd__twi__errorsrc_registerIP
 .text.__gnat_last_chance_handler
                0x0000000000004b28       0x84 C:\gnat\2020-arm-elf\arm-eabi\lib\gnat\zfp-cortex-m4f\adalib\libgnat.a(a-elchha.o)
                0x0000000000004b28                __gnat_last_chance_handler
 .text          0x0000000000004bac       0x20 C:\gnat\2020-arm-elf\arm-eabi\lib\gnat\zfp-cortex-m4f\adalib\libgnat.a(breakpoint_handler-cortexm.o)
                0x0000000000004bac                __gnat_bkpt_trap
 .text.gnat__io__put__2
                0x0000000000004bcc       0x44 C:\gnat\2020-arm-elf\arm-eabi\lib\gnat\zfp-cortex-m4f\adalib\libgnat.a(g-io.o)
                0x0000000000004bcc                gnat__io__put__2
 .text.gnat__io__new_line
                0x0000000000004c10       0x14 C:\gnat\2020-arm-elf\arm-eabi\lib\gnat\zfp-cortex-m4f\adalib\libgnat.a(g-io.o)
                0x0000000000004c10                gnat__io__new_line
 .text.gnat__io__put__3
                0x0000000000004c24       0x20 C:\gnat\2020-arm-elf\arm-eabi\lib\gnat\zfp-cortex-m4f\adalib\libgnat.a(g-io.o)
                0x0000000000004c24                gnat__io__put__3
 .text.gnat__io__put
                0x0000000000004c44       0x6c C:\gnat\2020-arm-elf\arm-eabi\lib\gnat\zfp-cortex-m4f\adalib\libgnat.a(g-io.o)
                0x0000000000004c44                gnat__io__put
 .text.gnat__io__put_line
                0x0000000000004cb0       0x10 C:\gnat\2020-arm-elf\arm-eabi\lib\gnat\zfp-cortex-m4f\adalib\libgnat.a(g-io.o)
                0x0000000000004cb0                gnat__io__put_line
 .text.system__assertions__raise_assert_failure
                0x0000000000004cc0       0x68 C:\gnat\2020-arm-elf\arm-eabi\lib\gnat\zfp-cortex-m4f\adalib\libgnat.a(s-assert.o)
                0x0000000000004cc0                system__assertions__raise_assert_failure
 .text._exit    0x0000000000004d28       0x10 C:\gnat\2020-arm-elf\arm-eabi\lib\gnat\zfp-cortex-m4f\adalib\libgnat.a(s-macres.o)
                0x0000000000004d28                _exit
 .text.system__machine_reset__stop
                0x0000000000004d38        0x8 C:\gnat\2020-arm-elf\arm-eabi\lib\gnat\zfp-cortex-m4f\adalib\libgnat.a(s-macres.o)
                0x0000000000004d38                system__machine_reset__stop
 .text.memcpy   0x0000000000004d40       0x50 C:\gnat\2020-arm-elf\arm-eabi\lib\gnat\zfp-cortex-m4f\adalib\libgnat.a(s-memcop.o)
                0x0000000000004d40                memcpy
 .text.memmove  0x0000000000004d90       0xa4 C:\gnat\2020-arm-elf\arm-eabi\lib\gnat\zfp-cortex-m4f\adalib\libgnat.a(s-memmov.o)
                0x0000000000004d90                memmove
 .text.memset   0x0000000000004e34       0x50 C:\gnat\2020-arm-elf\arm-eabi\lib\gnat\zfp-cortex-m4f\adalib\libgnat.a(s-memset.o)
                0x0000000000004e34                memset
 .text.system__secondary_stack__ss_stackIP
                0x0000000000004e84        0x4 C:\gnat\2020-arm-elf\arm-eabi\lib\gnat\zfp-cortex-m4f\adalib\libgnat.a(s-secsta.o)
                0x0000000000004e84                system__secondary_stack__ss_stackIP
 .text.system__text_io__initialize
                0x0000000000004e88        0xc C:\gnat\2020-arm-elf\arm-eabi\lib\gnat\zfp-cortex-m4f\adalib\libgnat.a(s-textio.o)
                0x0000000000004e88                system__text_io__initialize
 .text.system__text_io__is_tx_ready
                0x0000000000004e94        0x4 C:\gnat\2020-arm-elf\arm-eabi\lib\gnat\zfp-cortex-m4f\adalib\libgnat.a(s-textio.o)
                0x0000000000004e94                system__text_io__is_tx_ready
 .text.system__text_io__put
                0x0000000000004e98        0x4 C:\gnat\2020-arm-elf\arm-eabi\lib\gnat\zfp-cortex-m4f\adalib\libgnat.a(s-textio.o)
                0x0000000000004e98                system__text_io__put
 .text.system__text_io__use_cr_lf_for_new_line
                0x0000000000004e9c        0x4 C:\gnat\2020-arm-elf\arm-eabi\lib\gnat\zfp-cortex-m4f\adalib\libgnat.a(s-textio.o)
                0x0000000000004e9c                system__text_io__use_cr_lf_for_new_line
 .text.system__semihosting__put
                0x0000000000004ea0       0x80 C:\gnat\2020-arm-elf\arm-eabi\lib\gnat\zfp-cortex-m4f\adalib\libgnat.a(s-semiho.o)
                0x0000000000004ea0                system__semihosting__put
 *(.gnu.warning)

.glue_7         0x0000000000004f20        0x0
 .glue_7        0x0000000000004f20        0x0 linker stubs

.glue_7t        0x0000000000004f20        0x0
 .glue_7t       0x0000000000004f20        0x0 linker stubs

.vfp11_veneer   0x0000000000004f20        0x0
 .vfp11_veneer  0x0000000000004f20        0x0 linker stubs

.v4_bx          0x0000000000004f20        0x0
 .v4_bx         0x0000000000004f20        0x0 linker stubs

.iplt           0x0000000000004f20        0x0
 .iplt          0x0000000000004f20        0x0 main.o

.ARM.extab
 *(.ARM.extab* .gnu.linkonce.armextab.*)
                [!provide]                        PROVIDE (__exidx_start = .)

.ARM.exidx
 *(.ARM.exidx* .gnu.linkonce.armexidx.*)
                [!provide]                        PROVIDE (__exidx_end = .)

.rodata         0x0000000000004f20      0xea4
 *(.lit)
 *(.rodata .rodata.* .gnu.linkonce.r*)
 .rodata        0x0000000000004f20       0x44 main.o
 .rodata        0x0000000000004f64        0x8 b__main.o
 .rodata.__gnat_ada_main_program_name
                0x0000000000004f6c        0xa b__main.o
                0x0000000000004f6c                __gnat_ada_main_program_name
 *fill*         0x0000000000004f76        0x2 
 .rodata        0x0000000000004f78       0x12 C:\Users\JumpStart\Desktop\lehre\asyd\dev\Ada_Drivers_Library-master\boards\MicroBit\obj\zfp_lib_Debug\libada_drivers_library.a(cortex_m-nvic.o)
 *fill*         0x0000000000004f8a        0x2 
 .rodata        0x0000000000004f8c       0x2c C:\Users\JumpStart\Desktop\lehre\asyd\dev\Ada_Drivers_Library-master\boards\MicroBit\obj\zfp_lib_Debug\libada_drivers_library.a(microbit-console.o)
 .rodata        0x0000000000004fb8       0x80 C:\Users\JumpStart\Desktop\lehre\asyd\dev\Ada_Drivers_Library-master\boards\MicroBit\obj\zfp_lib_Debug\libada_drivers_library.a(microbit-display.o)
 .rodata.microbit__display__map
                0x0000000000005038       0xc8 C:\Users\JumpStart\Desktop\lehre\asyd\dev\Ada_Drivers_Library-master\boards\MicroBit\obj\zfp_lib_Debug\libada_drivers_library.a(microbit-display.o)
                0x0000000000005038                microbit__display__map
 .rodata.microbit__display__font
                0x0000000000005100      0x1d6 C:\Users\JumpStart\Desktop\lehre\asyd\dev\Ada_Drivers_Library-master\boards\MicroBit\obj\zfp_lib_Debug\libada_drivers_library.a(microbit-display.o)
                0x0000000000005100                microbit__display__font
 *fill*         0x00000000000052d6        0x2 
 .rodata        0x00000000000052d8       0xe1 C:\Users\JumpStart\Desktop\lehre\asyd\dev\Ada_Drivers_Library-master\boards\MicroBit\obj\zfp_lib_Debug\libada_drivers_library.a(microbit-time.o)
 *fill*         0x00000000000053b9        0x3 
 .rodata.microbit__time__mb_delaysE17s
                0x00000000000053bc       0x18 C:\Users\JumpStart\Desktop\lehre\asyd\dev\Ada_Drivers_Library-master\boards\MicroBit\obj\zfp_lib_Debug\libada_drivers_library.a(microbit-time.o)
                0x00000000000053bc                microbit__time__mb_delaysE17s
 .rodata.microbit__time__mb_delaysB21s
                0x00000000000053d4       0x20 C:\Users\JumpStart\Desktop\lehre\asyd\dev\Ada_Drivers_Library-master\boards\MicroBit\obj\zfp_lib_Debug\libada_drivers_library.a(microbit-time.o)
                0x00000000000053d4                microbit__time__mb_delaysB21s
 .rodata.microbit__time__mb_delaysR19s___UNC
                0x00000000000053f4       0x24 C:\Users\JumpStart\Desktop\lehre\asyd\dev\Ada_Drivers_Library-master\boards\MicroBit\obj\zfp_lib_Debug\libada_drivers_library.a(microbit-time.o)
                0x00000000000053f4                microbit__time__mb_delaysR19s___UNC
 .rodata.microbit__time__mb_delaysT
                0x0000000000005418       0x1c C:\Users\JumpStart\Desktop\lehre\asyd\dev\Ada_Drivers_Library-master\boards\MicroBit\obj\zfp_lib_Debug\libada_drivers_library.a(microbit-time.o)
                0x0000000000005418                microbit__time__mb_delaysT
 .rodata        0x0000000000005434        0xe C:\Users\JumpStart\Desktop\lehre\asyd\dev\Ada_Drivers_Library-master\boards\MicroBit\obj\zfp_lib_Debug\libada_drivers_library.a(nrf-clock.o)
 *fill*         0x0000000000005442        0x2 
 .rodata        0x0000000000005444        0xf C:\Users\JumpStart\Desktop\lehre\asyd\dev\Ada_Drivers_Library-master\boards\MicroBit\obj\zfp_lib_Debug\libada_drivers_library.a(nrf-events.o)
 *fill*         0x0000000000005453        0x1 
 .rodata        0x0000000000005454       0xc2 C:\Users\JumpStart\Desktop\lehre\asyd\dev\Ada_Drivers_Library-master\boards\MicroBit\obj\zfp_lib_Debug\libada_drivers_library.a(nrf-gpio.o)
 *fill*         0x0000000000005516        0x2 
 .rodata.nrf__gpio__gpio_pointE13s
                0x0000000000005518       0x14 C:\Users\JumpStart\Desktop\lehre\asyd\dev\Ada_Drivers_Library-master\boards\MicroBit\obj\zfp_lib_Debug\libada_drivers_library.a(nrf-gpio.o)
                0x0000000000005518                nrf__gpio__gpio_pointE13s
 .rodata.nrf__gpio__gpio_pointB17s
                0x000000000000552c       0x20 C:\Users\JumpStart\Desktop\lehre\asyd\dev\Ada_Drivers_Library-master\boards\MicroBit\obj\zfp_lib_Debug\libada_drivers_library.a(nrf-gpio.o)
                0x000000000000552c                nrf__gpio__gpio_pointB17s
 .rodata.nrf__gpio__gpio_pointR15s___UNC
                0x000000000000554c       0x24 C:\Users\JumpStart\Desktop\lehre\asyd\dev\Ada_Drivers_Library-master\boards\MicroBit\obj\zfp_lib_Debug\libada_drivers_library.a(nrf-gpio.o)
                0x000000000000554c                nrf__gpio__gpio_pointR15s___UNC
 .rodata.nrf__gpio__gpio_pointT
                0x0000000000005570       0x38 C:\Users\JumpStart\Desktop\lehre\asyd\dev\Ada_Drivers_Library-master\boards\MicroBit\obj\zfp_lib_Debug\libada_drivers_library.a(nrf-gpio.o)
                0x0000000000005570                nrf__gpio__gpio_pointT
 .rodata        0x00000000000055a8       0x13 C:\Users\JumpStart\Desktop\lehre\asyd\dev\Ada_Drivers_Library-master\boards\MicroBit\obj\zfp_lib_Debug\libada_drivers_library.a(nrf-interrupts.o)
 *fill*         0x00000000000055bb        0x1 
 .rodata        0x00000000000055bc        0xc C:\Users\JumpStart\Desktop\lehre\asyd\dev\Ada_Drivers_Library-master\boards\MicroBit\obj\zfp_lib_Debug\libada_drivers_library.a(nrf-rtc.o)
 .rodata        0x00000000000055c8      0x1cd C:\Users\JumpStart\Desktop\lehre\asyd\dev\Ada_Drivers_Library-master\boards\MicroBit\obj\zfp_lib_Debug\libada_drivers_library.a(nrf-spi_master.o)
 *fill*         0x0000000000005795        0x3 
 .rodata.nrf__spi_master__spi_masterE26s
                0x0000000000005798       0x1a C:\Users\JumpStart\Desktop\lehre\asyd\dev\Ada_Drivers_Library-master\boards\MicroBit\obj\zfp_lib_Debug\libada_drivers_library.a(nrf-spi_master.o)
                0x0000000000005798                nrf__spi_master__spi_masterE26s
 *fill*         0x00000000000057b2        0x2 
 .rodata.nrf__spi_master__spi_masterB30s
                0x00000000000057b4       0x20 C:\Users\JumpStart\Desktop\lehre\asyd\dev\Ada_Drivers_Library-master\boards\MicroBit\obj\zfp_lib_Debug\libada_drivers_library.a(nrf-spi_master.o)
                0x00000000000057b4                nrf__spi_master__spi_masterB30s
 .rodata.nrf__spi_master__spi_masterR28s___UNC
                0x00000000000057d4       0x24 C:\Users\JumpStart\Desktop\lehre\asyd\dev\Ada_Drivers_Library-master\boards\MicroBit\obj\zfp_lib_Debug\libada_drivers_library.a(nrf-spi_master.o)
                0x00000000000057d4                nrf__spi_master__spi_masterR28s___UNC
 .rodata.nrf__spi_master__spi_masterT
                0x00000000000057f8       0x38 C:\Users\JumpStart\Desktop\lehre\asyd\dev\Ada_Drivers_Library-master\boards\MicroBit\obj\zfp_lib_Debug\libada_drivers_library.a(nrf-spi_master.o)
                0x00000000000057f8                nrf__spi_master__spi_masterT
 .rodata        0x0000000000005830        0xe C:\Users\JumpStart\Desktop\lehre\asyd\dev\Ada_Drivers_Library-master\boards\MicroBit\obj\zfp_lib_Debug\libada_drivers_library.a(nrf-tasks.o)
 *fill*         0x000000000000583e        0x2 
 .rodata        0x0000000000005840       0x54 C:\Users\JumpStart\Desktop\lehre\asyd\dev\Ada_Drivers_Library-master\boards\MicroBit\obj\zfp_lib_Debug\libada_drivers_library.a(nrf-timers.o)
 .rodata.nrf__timers__timerE19s
                0x0000000000005894       0x11 C:\Users\JumpStart\Desktop\lehre\asyd\dev\Ada_Drivers_Library-master\boards\MicroBit\obj\zfp_lib_Debug\libada_drivers_library.a(nrf-timers.o)
                0x0000000000005894                nrf__timers__timerE19s
 *fill*         0x00000000000058a5        0x3 
 .rodata.nrf__timers__timerB23s
                0x00000000000058a8       0x1c C:\Users\JumpStart\Desktop\lehre\asyd\dev\Ada_Drivers_Library-master\boards\MicroBit\obj\zfp_lib_Debug\libada_drivers_library.a(nrf-timers.o)
                0x00000000000058a8                nrf__timers__timerB23s
 .rodata.nrf__timers__timerR21s___UNC
                0x00000000000058c4       0x24 C:\Users\JumpStart\Desktop\lehre\asyd\dev\Ada_Drivers_Library-master\boards\MicroBit\obj\zfp_lib_Debug\libada_drivers_library.a(nrf-timers.o)
                0x00000000000058c4                nrf__timers__timerR21s___UNC
 .rodata.nrf__timers__timerT
                0x00000000000058e8       0x5c C:\Users\JumpStart\Desktop\lehre\asyd\dev\Ada_Drivers_Library-master\boards\MicroBit\obj\zfp_lib_Debug\libada_drivers_library.a(nrf-timers.o)
                0x00000000000058e8                nrf__timers__timerT
 .rodata        0x0000000000005944       0xd3 C:\Users\JumpStart\Desktop\lehre\asyd\dev\Ada_Drivers_Library-master\boards\MicroBit\obj\zfp_lib_Debug\libada_drivers_library.a(nrf-twi.o)
 *fill*         0x0000000000005a17        0x1 
 .rodata.nrf__twi__twi_masterE22s
                0x0000000000005a18       0x13 C:\Users\JumpStart\Desktop\lehre\asyd\dev\Ada_Drivers_Library-master\boards\MicroBit\obj\zfp_lib_Debug\libada_drivers_library.a(nrf-twi.o)
                0x0000000000005a18                nrf__twi__twi_masterE22s
 *fill*         0x0000000000005a2b        0x1 
 .rodata.nrf__twi__twi_masterB26s
                0x0000000000005a2c       0x20 C:\Users\JumpStart\Desktop\lehre\asyd\dev\Ada_Drivers_Library-master\boards\MicroBit\obj\zfp_lib_Debug\libada_drivers_library.a(nrf-twi.o)
                0x0000000000005a2c                nrf__twi__twi_masterB26s
 .rodata.nrf__twi__twi_masterR24s___UNC
                0x0000000000005a4c       0x24 C:\Users\JumpStart\Desktop\lehre\asyd\dev\Ada_Drivers_Library-master\boards\MicroBit\obj\zfp_lib_Debug\libada_drivers_library.a(nrf-twi.o)
                0x0000000000005a4c                nrf__twi__twi_masterR24s___UNC
 .rodata.nrf__twi__twi_masterT
                0x0000000000005a70       0x34 C:\Users\JumpStart\Desktop\lehre\asyd\dev\Ada_Drivers_Library-master\boards\MicroBit\obj\zfp_lib_Debug\libada_drivers_library.a(nrf-twi.o)
                0x0000000000005a70                nrf__twi__twi_masterT
 .rodata        0x0000000000005aa4       0xf6 C:\Users\JumpStart\Desktop\lehre\asyd\dev\Ada_Drivers_Library-master\boards\MicroBit\obj\zfp_lib_Debug\libada_drivers_library.a(nrf-uart.o)
 *fill*         0x0000000000005b9a        0x2 
 .rodata.nrf__uart__uart_deviceE44s
                0x0000000000005b9c       0x15 C:\Users\JumpStart\Desktop\lehre\asyd\dev\Ada_Drivers_Library-master\boards\MicroBit\obj\zfp_lib_Debug\libada_drivers_library.a(nrf-uart.o)
                0x0000000000005b9c                nrf__uart__uart_deviceE44s
 *fill*         0x0000000000005bb1        0x3 
 .rodata.nrf__uart__uart_deviceB48s
                0x0000000000005bb4       0x20 C:\Users\JumpStart\Desktop\lehre\asyd\dev\Ada_Drivers_Library-master\boards\MicroBit\obj\zfp_lib_Debug\libada_drivers_library.a(nrf-uart.o)
                0x0000000000005bb4                nrf__uart__uart_deviceB48s
 .rodata.nrf__uart__uart_deviceR46s___UNC
                0x0000000000005bd4       0x24 C:\Users\JumpStart\Desktop\lehre\asyd\dev\Ada_Drivers_Library-master\boards\MicroBit\obj\zfp_lib_Debug\libada_drivers_library.a(nrf-uart.o)
                0x0000000000005bd4                nrf__uart__uart_deviceR46s___UNC
 .rodata.nrf__uart__uart_deviceT
                0x0000000000005bf8       0x38 C:\Users\JumpStart\Desktop\lehre\asyd\dev\Ada_Drivers_Library-master\boards\MicroBit\obj\zfp_lib_Debug\libada_drivers_library.a(nrf-uart.o)
                0x0000000000005bf8                nrf__uart__uart_deviceT
 .rodata.hal__gpio__gpio_pointE5s
                0x0000000000005c30       0x14 C:\Users\JumpStart\Desktop\lehre\asyd\dev\Ada_Drivers_Library-master\boards\MicroBit\obj\zfp_lib_Debug\libada_drivers_library.a(hal-gpio.o)
                0x0000000000005c30                hal__gpio__gpio_pointE5s
 .rodata.hal__gpio__gpio_pointB9s
                0x0000000000005c44       0x1c C:\Users\JumpStart\Desktop\lehre\asyd\dev\Ada_Drivers_Library-master\boards\MicroBit\obj\zfp_lib_Debug\libada_drivers_library.a(hal-gpio.o)
                0x0000000000005c44                hal__gpio__gpio_pointB9s
 .rodata.hal__gpio__gpio_pointT
                0x0000000000005c60        0x8 C:\Users\JumpStart\Desktop\lehre\asyd\dev\Ada_Drivers_Library-master\boards\MicroBit\obj\zfp_lib_Debug\libada_drivers_library.a(hal-gpio.o)
                0x0000000000005c60                hal__gpio__gpio_pointT
 .rodata.hal__i2c__i2c_portE2s
                0x0000000000005c68       0x11 C:\Users\JumpStart\Desktop\lehre\asyd\dev\Ada_Drivers_Library-master\boards\MicroBit\obj\zfp_lib_Debug\libada_drivers_library.a(hal-i2c.o)
                0x0000000000005c68                hal__i2c__i2c_portE2s
 *fill*         0x0000000000005c79        0x3 
 .rodata.hal__i2c__i2c_portB6s
                0x0000000000005c7c       0x1c C:\Users\JumpStart\Desktop\lehre\asyd\dev\Ada_Drivers_Library-master\boards\MicroBit\obj\zfp_lib_Debug\libada_drivers_library.a(hal-i2c.o)
                0x0000000000005c7c                hal__i2c__i2c_portB6s
 .rodata.hal__i2c__i2c_portT
                0x0000000000005c98        0x8 C:\Users\JumpStart\Desktop\lehre\asyd\dev\Ada_Drivers_Library-master\boards\MicroBit\obj\zfp_lib_Debug\libada_drivers_library.a(hal-i2c.o)
                0x0000000000005c98                hal__i2c__i2c_portT
 .rodata.hal__spi__spi_portE10s
                0x0000000000005ca0       0x11 C:\Users\JumpStart\Desktop\lehre\asyd\dev\Ada_Drivers_Library-master\boards\MicroBit\obj\zfp_lib_Debug\libada_drivers_library.a(hal-spi.o)
                0x0000000000005ca0                hal__spi__spi_portE10s
 *fill*         0x0000000000005cb1        0x3 
 .rodata.hal__spi__spi_portB14s
                0x0000000000005cb4       0x1c C:\Users\JumpStart\Desktop\lehre\asyd\dev\Ada_Drivers_Library-master\boards\MicroBit\obj\zfp_lib_Debug\libada_drivers_library.a(hal-spi.o)
                0x0000000000005cb4                hal__spi__spi_portB14s
 .rodata.hal__spi__spi_portT
                0x0000000000005cd0        0x8 C:\Users\JumpStart\Desktop\lehre\asyd\dev\Ada_Drivers_Library-master\boards\MicroBit\obj\zfp_lib_Debug\libada_drivers_library.a(hal-spi.o)
                0x0000000000005cd0                hal__spi__spi_portT
 .rodata.hal__time__delaysE2s
                0x0000000000005cd8       0x10 C:\Users\JumpStart\Desktop\lehre\asyd\dev\Ada_Drivers_Library-master\boards\MicroBit\obj\zfp_lib_Debug\libada_drivers_library.a(hal-time.o)
                0x0000000000005cd8                hal__time__delaysE2s
 .rodata.hal__time__delaysB6s
                0x0000000000005ce8       0x1c C:\Users\JumpStart\Desktop\lehre\asyd\dev\Ada_Drivers_Library-master\boards\MicroBit\obj\zfp_lib_Debug\libada_drivers_library.a(hal-time.o)
                0x0000000000005ce8                hal__time__delaysB6s
 .rodata.hal__time__delaysT
                0x0000000000005d04        0x8 C:\Users\JumpStart\Desktop\lehre\asyd\dev\Ada_Drivers_Library-master\boards\MicroBit\obj\zfp_lib_Debug\libada_drivers_library.a(hal-time.o)
                0x0000000000005d04                hal__time__delaysT
 .rodata.hal__uart__uart_portE10s
                0x0000000000005d0c       0x13 C:\Users\JumpStart\Desktop\lehre\asyd\dev\Ada_Drivers_Library-master\boards\MicroBit\obj\zfp_lib_Debug\libada_drivers_library.a(hal-uart.o)
                0x0000000000005d0c                hal__uart__uart_portE10s
 *fill*         0x0000000000005d1f        0x1 
 .rodata.hal__uart__uart_portB14s
                0x0000000000005d20       0x1c C:\Users\JumpStart\Desktop\lehre\asyd\dev\Ada_Drivers_Library-master\boards\MicroBit\obj\zfp_lib_Debug\libada_drivers_library.a(hal-uart.o)
                0x0000000000005d20                hal__uart__uart_portB14s
 .rodata.hal__uart__uart_portT
                0x0000000000005d3c        0x8 C:\Users\JumpStart\Desktop\lehre\asyd\dev\Ada_Drivers_Library-master\boards\MicroBit\obj\zfp_lib_Debug\libada_drivers_library.a(hal-uart.o)
                0x0000000000005d3c                hal__uart__uart_portT
 .rodata.__gnat_last_chance_handler.str1.4
                0x0000000000005d44       0x5a C:\gnat\2020-arm-elf\arm-eabi\lib\gnat\zfp-cortex-m4f\adalib\libgnat.a(a-elchha.o)
 *fill*         0x0000000000005d9e        0x2 
 .rodata        0x0000000000005da0       0x18 C:\gnat\2020-arm-elf\arm-eabi\lib\gnat\zfp-cortex-m4f\adalib\libgnat.a(a-elchha.o)
 .rodata.ada__exceptions__empty_c_string___UNC
                0x0000000000005db8        0xc C:\gnat\2020-arm-elf\arm-eabi\lib\gnat\zfp-cortex-m4f\adalib\libgnat.a(a-except.o)
                0x0000000000005db8                ada__exceptions__empty_c_string___UNC
                0x0000000000005dc4                . = ALIGN (0x4)
                0x0000000000005dc4                __rom_end = .
                0x0000000000005dc4                __data_load = LOADADDR (.data)

.rel.dyn        0x0000000000005dc4        0x0
 .rel.iplt      0x0000000000005dc4        0x0 main.o

.data           0x0000000020000000       0x8c load address 0x0000000000005dc4
                0x0000000020000000                __data_start = .
 *(.data .data.* .gnu.linkonce.d*)
 .data.cortex_m__nvic_E
                0x0000000020000000        0x2 C:\Users\JumpStart\Desktop\lehre\asyd\dev\Ada_Drivers_Library-master\boards\MicroBit\obj\zfp_lib_Debug\libada_drivers_library.a(cortex_m-nvic.o)
                0x0000000020000000                cortex_m__nvic_E
 .data.memory_barriers_E
                0x0000000020000002        0x2 C:\Users\JumpStart\Desktop\lehre\asyd\dev\Ada_Drivers_Library-master\boards\MicroBit\obj\zfp_lib_Debug\libada_drivers_library.a(memory_barriers.o)
                0x0000000020000002                memory_barriers_E
 .data.microbit__console_E
                0x0000000020000004        0x2 C:\Users\JumpStart\Desktop\lehre\asyd\dev\Ada_Drivers_Library-master\boards\MicroBit\obj\zfp_lib_Debug\libada_drivers_library.a(microbit-console.o)
                0x0000000020000004                microbit__console_E
 .data.microbit__display_E
                0x0000000020000006        0x2 C:\Users\JumpStart\Desktop\lehre\asyd\dev\Ada_Drivers_Library-master\boards\MicroBit\obj\zfp_lib_Debug\libada_drivers_library.a(microbit-display.o)
                0x0000000020000006                microbit__display_E
 .data.microbit__display__animation_step_duration_ms
                0x0000000020000008        0x4 C:\Users\JumpStart\Desktop\lehre\asyd\dev\Ada_Drivers_Library-master\boards\MicroBit\obj\zfp_lib_Debug\libada_drivers_library.a(microbit-display.o)
                0x0000000020000008                microbit__display__animation_step_duration_ms
 .data.microbit__display__animation_elapsed
                0x000000002000000c        0x4 C:\Users\JumpStart\Desktop\lehre\asyd\dev\Ada_Drivers_Library-master\boards\MicroBit\obj\zfp_lib_Debug\libada_drivers_library.a(microbit-display.o)
                0x000000002000000c                microbit__display__animation_elapsed
 .data.microbit__display__animation_state
                0x0000000020000010        0x1 C:\Users\JumpStart\Desktop\lehre\asyd\dev\Ada_Drivers_Library-master\boards\MicroBit\obj\zfp_lib_Debug\libada_drivers_library.a(microbit-display.o)
                0x0000000020000010                microbit__display__animation_state
 *fill*         0x0000000020000011        0x3 
 .data.microbit__display__bitmap
                0x0000000020000014       0x37 C:\Users\JumpStart\Desktop\lehre\asyd\dev\Ada_Drivers_Library-master\boards\MicroBit\obj\zfp_lib_Debug\libada_drivers_library.a(microbit-display.o)
                0x0000000020000014                microbit__display__bitmap
 *fill*         0x000000002000004b        0x1 
 .data.microbit__display__current_x
                0x000000002000004c        0x4 C:\Users\JumpStart\Desktop\lehre\asyd\dev\Ada_Drivers_Library-master\boards\MicroBit\obj\zfp_lib_Debug\libada_drivers_library.a(microbit-display.o)
                0x000000002000004c                microbit__display__current_x
 .data.microbit__display__current_y
                0x0000000020000050        0x4 C:\Users\JumpStart\Desktop\lehre\asyd\dev\Ada_Drivers_Library-master\boards\MicroBit\obj\zfp_lib_Debug\libada_drivers_library.a(microbit-display.o)
                0x0000000020000050                microbit__display__current_y
 .data.microbit__display__scroll_text_length
                0x0000000020000054        0x4 C:\Users\JumpStart\Desktop\lehre\asyd\dev\Ada_Drivers_Library-master\boards\MicroBit\obj\zfp_lib_Debug\libada_drivers_library.a(microbit-display.o)
                0x0000000020000054                microbit__display__scroll_text_length
 .data.microbit__display__scroll_text_index
                0x0000000020000058        0x4 C:\Users\JumpStart\Desktop\lehre\asyd\dev\Ada_Drivers_Library-master\boards\MicroBit\obj\zfp_lib_Debug\libada_drivers_library.a(microbit-display.o)
                0x0000000020000058                microbit__display__scroll_text_index
 .data.microbit__display__scroll_position
                0x000000002000005c        0x4 C:\Users\JumpStart\Desktop\lehre\asyd\dev\Ada_Drivers_Library-master\boards\MicroBit\obj\zfp_lib_Debug\libada_drivers_library.a(microbit-display.o)
                0x000000002000005c                microbit__display__scroll_position
 .data.microbit__time_E
                0x0000000020000060        0x2 C:\Users\JumpStart\Desktop\lehre\asyd\dev\Ada_Drivers_Library-master\boards\MicroBit\obj\zfp_lib_Debug\libada_drivers_library.a(microbit-time.o)
                0x0000000020000060                microbit__time_E
 *fill*         0x0000000020000062        0x6 
 .data.microbit__time__clock_ms
                0x0000000020000068        0x8 C:\Users\JumpStart\Desktop\lehre\asyd\dev\Ada_Drivers_Library-master\boards\MicroBit\obj\zfp_lib_Debug\libada_drivers_library.a(microbit-time.o)
 .data.nrf__clock_E
                0x0000000020000070        0x2 C:\Users\JumpStart\Desktop\lehre\asyd\dev\Ada_Drivers_Library-master\boards\MicroBit\obj\zfp_lib_Debug\libada_drivers_library.a(nrf-clock.o)
                0x0000000020000070                nrf__clock_E
 .data.nrf__device_E
                0x0000000020000072        0x2 C:\Users\JumpStart\Desktop\lehre\asyd\dev\Ada_Drivers_Library-master\boards\MicroBit\obj\zfp_lib_Debug\libada_drivers_library.a(nrf-device.o)
                0x0000000020000072                nrf__device_E
 .data.nrf__events_E
                0x0000000020000074        0x2 C:\Users\JumpStart\Desktop\lehre\asyd\dev\Ada_Drivers_Library-master\boards\MicroBit\obj\zfp_lib_Debug\libada_drivers_library.a(nrf-events.o)
                0x0000000020000074                nrf__events_E
 .data.nrf__gpio_E
                0x0000000020000076        0x2 C:\Users\JumpStart\Desktop\lehre\asyd\dev\Ada_Drivers_Library-master\boards\MicroBit\obj\zfp_lib_Debug\libada_drivers_library.a(nrf-gpio.o)
                0x0000000020000076                nrf__gpio_E
 .data.nrf__interrupts_E
                0x0000000020000078        0x2 C:\Users\JumpStart\Desktop\lehre\asyd\dev\Ada_Drivers_Library-master\boards\MicroBit\obj\zfp_lib_Debug\libada_drivers_library.a(nrf-interrupts.o)
                0x0000000020000078                nrf__interrupts_E
 .data.nrf__rtc_E
                0x000000002000007a        0x2 C:\Users\JumpStart\Desktop\lehre\asyd\dev\Ada_Drivers_Library-master\boards\MicroBit\obj\zfp_lib_Debug\libada_drivers_library.a(nrf-rtc.o)
                0x000000002000007a                nrf__rtc_E
 .data.nrf__spi_master_E
                0x000000002000007c        0x2 C:\Users\JumpStart\Desktop\lehre\asyd\dev\Ada_Drivers_Library-master\boards\MicroBit\obj\zfp_lib_Debug\libada_drivers_library.a(nrf-spi_master.o)
                0x000000002000007c                nrf__spi_master_E
 .data.nrf__tasks_E
                0x000000002000007e        0x2 C:\Users\JumpStart\Desktop\lehre\asyd\dev\Ada_Drivers_Library-master\boards\MicroBit\obj\zfp_lib_Debug\libada_drivers_library.a(nrf-tasks.o)
                0x000000002000007e                nrf__tasks_E
 .data.nrf__timers_E
                0x0000000020000080        0x2 C:\Users\JumpStart\Desktop\lehre\asyd\dev\Ada_Drivers_Library-master\boards\MicroBit\obj\zfp_lib_Debug\libada_drivers_library.a(nrf-timers.o)
                0x0000000020000080                nrf__timers_E
 .data.nrf__twi_E
                0x0000000020000082        0x2 C:\Users\JumpStart\Desktop\lehre\asyd\dev\Ada_Drivers_Library-master\boards\MicroBit\obj\zfp_lib_Debug\libada_drivers_library.a(nrf-twi.o)
                0x0000000020000082                nrf__twi_E
 .data.nrf__uart_E
                0x0000000020000084        0x2 C:\Users\JumpStart\Desktop\lehre\asyd\dev\Ada_Drivers_Library-master\boards\MicroBit\obj\zfp_lib_Debug\libada_drivers_library.a(nrf-uart.o)
                0x0000000020000084                nrf__uart_E
 .data.system__text_io__initialized
                0x0000000020000086        0x1 C:\gnat\2020-arm-elf\arm-eabi\lib\gnat\zfp-cortex-m4f\adalib\libgnat.a(s-textio.o)
                0x0000000020000086                system__text_io__initialized
 *fill*         0x0000000020000087        0x1 
 .data.system__semihosting__buffer_index
                0x0000000020000088        0x2 C:\gnat\2020-arm-elf\arm-eabi\lib\gnat\zfp-cortex-m4f\adalib\libgnat.a(s-semiho.o)
                0x000000002000008c                . = ALIGN (0x4)
 *fill*         0x000000002000008a        0x2 
                0x000000002000008c                __data_end = .
                0x0000000000000023                __data_words = ((__data_end - __data_start) >> 0x2)

.igot.plt       0x000000002000008c        0x0 load address 0x0000000000005e50
 .igot.plt      0x000000002000008c        0x0 main.o

.bss            0x0000000020000090      0xeb0 load address 0x0000000000005e50
                0x0000000020000090                . = ALIGN (0x8)
                0x0000000020000090                __bss_start = .
 *(.bss .bss.*)
 .bss.ada_main__sec_default_sized_stacks
                0x0000000020000090      0x210 b__main.o
 .bss.microbit__display__row_points
                0x00000000200002a0       0x3c C:\Users\JumpStart\Desktop\lehre\asyd\dev\Ada_Drivers_Library-master\boards\MicroBit\obj\zfp_lib_Debug\libada_drivers_library.a(microbit-display.o)
                0x00000000200002a0                microbit__display__row_points
 .bss.microbit__display__column_points
                0x00000000200002dc       0x3c C:\Users\JumpStart\Desktop\lehre\asyd\dev\Ada_Drivers_Library-master\boards\MicroBit\obj\zfp_lib_Debug\libada_drivers_library.a(microbit-display.o)
                0x00000000200002dc                microbit__display__column_points
 .bss.microbit__display__scroll_text_buffer
                0x0000000020000318       0x80 C:\Users\JumpStart\Desktop\lehre\asyd\dev\Ada_Drivers_Library-master\boards\MicroBit\obj\zfp_lib_Debug\libada_drivers_library.a(microbit-display.o)
                0x0000000020000318                microbit__display__scroll_text_buffer
 .bss.microbit__time__subscribers
                0x0000000020000398       0x28 C:\Users\JumpStart\Desktop\lehre\asyd\dev\Ada_Drivers_Library-master\boards\MicroBit\obj\zfp_lib_Debug\libada_drivers_library.a(microbit-time.o)
 .bss.microbit__time__delay_instance
                0x00000000200003c0        0x4 C:\Users\JumpStart\Desktop\lehre\asyd\dev\Ada_Drivers_Library-master\boards\MicroBit\obj\zfp_lib_Debug\libada_drivers_library.a(microbit-time.o)
 .bss.nrf__device__p0_00
                0x00000000200003c4        0xc C:\Users\JumpStart\Desktop\lehre\asyd\dev\Ada_Drivers_Library-master\boards\MicroBit\obj\zfp_lib_Debug\libada_drivers_library.a(nrf-device.o)
                0x00000000200003c4                nrf__device__p0_00
 .bss.nrf__device__p0_01
                0x00000000200003d0        0xc C:\Users\JumpStart\Desktop\lehre\asyd\dev\Ada_Drivers_Library-master\boards\MicroBit\obj\zfp_lib_Debug\libada_drivers_library.a(nrf-device.o)
                0x00000000200003d0                nrf__device__p0_01
 .bss.nrf__device__p0_02
                0x00000000200003dc        0xc C:\Users\JumpStart\Desktop\lehre\asyd\dev\Ada_Drivers_Library-master\boards\MicroBit\obj\zfp_lib_Debug\libada_drivers_library.a(nrf-device.o)
                0x00000000200003dc                nrf__device__p0_02
 .bss.nrf__device__p0_03
                0x00000000200003e8        0xc C:\Users\JumpStart\Desktop\lehre\asyd\dev\Ada_Drivers_Library-master\boards\MicroBit\obj\zfp_lib_Debug\libada_drivers_library.a(nrf-device.o)
                0x00000000200003e8                nrf__device__p0_03
 .bss.nrf__device__p0_04
                0x00000000200003f4        0xc C:\Users\JumpStart\Desktop\lehre\asyd\dev\Ada_Drivers_Library-master\boards\MicroBit\obj\zfp_lib_Debug\libada_drivers_library.a(nrf-device.o)
                0x00000000200003f4                nrf__device__p0_04
 .bss.nrf__device__p0_05
                0x0000000020000400        0xc C:\Users\JumpStart\Desktop\lehre\asyd\dev\Ada_Drivers_Library-master\boards\MicroBit\obj\zfp_lib_Debug\libada_drivers_library.a(nrf-device.o)
                0x0000000020000400                nrf__device__p0_05
 .bss.nrf__device__p0_06
                0x000000002000040c        0xc C:\Users\JumpStart\Desktop\lehre\asyd\dev\Ada_Drivers_Library-master\boards\MicroBit\obj\zfp_lib_Debug\libada_drivers_library.a(nrf-device.o)
                0x000000002000040c                nrf__device__p0_06
 .bss.nrf__device__p0_07
                0x0000000020000418        0xc C:\Users\JumpStart\Desktop\lehre\asyd\dev\Ada_Drivers_Library-master\boards\MicroBit\obj\zfp_lib_Debug\libada_drivers_library.a(nrf-device.o)
                0x0000000020000418                nrf__device__p0_07
 .bss.nrf__device__p0_08
                0x0000000020000424        0xc C:\Users\JumpStart\Desktop\lehre\asyd\dev\Ada_Drivers_Library-master\boards\MicroBit\obj\zfp_lib_Debug\libada_drivers_library.a(nrf-device.o)
                0x0000000020000424                nrf__device__p0_08
 .bss.nrf__device__p0_09
                0x0000000020000430        0xc C:\Users\JumpStart\Desktop\lehre\asyd\dev\Ada_Drivers_Library-master\boards\MicroBit\obj\zfp_lib_Debug\libada_drivers_library.a(nrf-device.o)
                0x0000000020000430                nrf__device__p0_09
 .bss.nrf__device__p0_10
                0x000000002000043c        0xc C:\Users\JumpStart\Desktop\lehre\asyd\dev\Ada_Drivers_Library-master\boards\MicroBit\obj\zfp_lib_Debug\libada_drivers_library.a(nrf-device.o)
                0x000000002000043c                nrf__device__p0_10
 .bss.nrf__device__p0_11
                0x0000000020000448        0xc C:\Users\JumpStart\Desktop\lehre\asyd\dev\Ada_Drivers_Library-master\boards\MicroBit\obj\zfp_lib_Debug\libada_drivers_library.a(nrf-device.o)
                0x0000000020000448                nrf__device__p0_11
 .bss.nrf__device__p0_12
                0x0000000020000454        0xc C:\Users\JumpStart\Desktop\lehre\asyd\dev\Ada_Drivers_Library-master\boards\MicroBit\obj\zfp_lib_Debug\libada_drivers_library.a(nrf-device.o)
                0x0000000020000454                nrf__device__p0_12
 .bss.nrf__device__p0_13
                0x0000000020000460        0xc C:\Users\JumpStart\Desktop\lehre\asyd\dev\Ada_Drivers_Library-master\boards\MicroBit\obj\zfp_lib_Debug\libada_drivers_library.a(nrf-device.o)
                0x0000000020000460                nrf__device__p0_13
 .bss.nrf__device__p0_14
                0x000000002000046c        0xc C:\Users\JumpStart\Desktop\lehre\asyd\dev\Ada_Drivers_Library-master\boards\MicroBit\obj\zfp_lib_Debug\libada_drivers_library.a(nrf-device.o)
                0x000000002000046c                nrf__device__p0_14
 .bss.nrf__device__p0_15
                0x0000000020000478        0xc C:\Users\JumpStart\Desktop\lehre\asyd\dev\Ada_Drivers_Library-master\boards\MicroBit\obj\zfp_lib_Debug\libada_drivers_library.a(nrf-device.o)
                0x0000000020000478                nrf__device__p0_15
 .bss.nrf__device__p0_16
                0x0000000020000484        0xc C:\Users\JumpStart\Desktop\lehre\asyd\dev\Ada_Drivers_Library-master\boards\MicroBit\obj\zfp_lib_Debug\libada_drivers_library.a(nrf-device.o)
                0x0000000020000484                nrf__device__p0_16
 .bss.nrf__device__p0_17
                0x0000000020000490        0xc C:\Users\JumpStart\Desktop\lehre\asyd\dev\Ada_Drivers_Library-master\boards\MicroBit\obj\zfp_lib_Debug\libada_drivers_library.a(nrf-device.o)
                0x0000000020000490                nrf__device__p0_17
 .bss.nrf__device__p0_18
                0x000000002000049c        0xc C:\Users\JumpStart\Desktop\lehre\asyd\dev\Ada_Drivers_Library-master\boards\MicroBit\obj\zfp_lib_Debug\libada_drivers_library.a(nrf-device.o)
                0x000000002000049c                nrf__device__p0_18
 .bss.nrf__device__p0_19
                0x00000000200004a8        0xc C:\Users\JumpStart\Desktop\lehre\asyd\dev\Ada_Drivers_Library-master\boards\MicroBit\obj\zfp_lib_Debug\libada_drivers_library.a(nrf-device.o)
                0x00000000200004a8                nrf__device__p0_19
 .bss.nrf__device__p0_20
                0x00000000200004b4        0xc C:\Users\JumpStart\Desktop\lehre\asyd\dev\Ada_Drivers_Library-master\boards\MicroBit\obj\zfp_lib_Debug\libada_drivers_library.a(nrf-device.o)
                0x00000000200004b4                nrf__device__p0_20
 .bss.nrf__device__p0_21
                0x00000000200004c0        0xc C:\Users\JumpStart\Desktop\lehre\asyd\dev\Ada_Drivers_Library-master\boards\MicroBit\obj\zfp_lib_Debug\libada_drivers_library.a(nrf-device.o)
                0x00000000200004c0                nrf__device__p0_21
 .bss.nrf__device__p0_22
                0x00000000200004cc        0xc C:\Users\JumpStart\Desktop\lehre\asyd\dev\Ada_Drivers_Library-master\boards\MicroBit\obj\zfp_lib_Debug\libada_drivers_library.a(nrf-device.o)
                0x00000000200004cc                nrf__device__p0_22
 .bss.nrf__device__p0_23
                0x00000000200004d8        0xc C:\Users\JumpStart\Desktop\lehre\asyd\dev\Ada_Drivers_Library-master\boards\MicroBit\obj\zfp_lib_Debug\libada_drivers_library.a(nrf-device.o)
                0x00000000200004d8                nrf__device__p0_23
 .bss.nrf__device__p0_24
                0x00000000200004e4        0xc C:\Users\JumpStart\Desktop\lehre\asyd\dev\Ada_Drivers_Library-master\boards\MicroBit\obj\zfp_lib_Debug\libada_drivers_library.a(nrf-device.o)
                0x00000000200004e4                nrf__device__p0_24
 .bss.nrf__device__p0_25
                0x00000000200004f0        0xc C:\Users\JumpStart\Desktop\lehre\asyd\dev\Ada_Drivers_Library-master\boards\MicroBit\obj\zfp_lib_Debug\libada_drivers_library.a(nrf-device.o)
                0x00000000200004f0                nrf__device__p0_25
 .bss.nrf__device__p0_26
                0x00000000200004fc        0xc C:\Users\JumpStart\Desktop\lehre\asyd\dev\Ada_Drivers_Library-master\boards\MicroBit\obj\zfp_lib_Debug\libada_drivers_library.a(nrf-device.o)
                0x00000000200004fc                nrf__device__p0_26
 .bss.nrf__device__p0_27
                0x0000000020000508        0xc C:\Users\JumpStart\Desktop\lehre\asyd\dev\Ada_Drivers_Library-master\boards\MicroBit\obj\zfp_lib_Debug\libada_drivers_library.a(nrf-device.o)
                0x0000000020000508                nrf__device__p0_27
 .bss.nrf__device__p0_28
                0x0000000020000514        0xc C:\Users\JumpStart\Desktop\lehre\asyd\dev\Ada_Drivers_Library-master\boards\MicroBit\obj\zfp_lib_Debug\libada_drivers_library.a(nrf-device.o)
                0x0000000020000514                nrf__device__p0_28
 .bss.nrf__device__p0_29
                0x0000000020000520        0xc C:\Users\JumpStart\Desktop\lehre\asyd\dev\Ada_Drivers_Library-master\boards\MicroBit\obj\zfp_lib_Debug\libada_drivers_library.a(nrf-device.o)
                0x0000000020000520                nrf__device__p0_29
 .bss.nrf__device__p0_30
                0x000000002000052c        0xc C:\Users\JumpStart\Desktop\lehre\asyd\dev\Ada_Drivers_Library-master\boards\MicroBit\obj\zfp_lib_Debug\libada_drivers_library.a(nrf-device.o)
                0x000000002000052c                nrf__device__p0_30
 .bss.nrf__device__p0_31
                0x0000000020000538        0xc C:\Users\JumpStart\Desktop\lehre\asyd\dev\Ada_Drivers_Library-master\boards\MicroBit\obj\zfp_lib_Debug\libada_drivers_library.a(nrf-device.o)
                0x0000000020000538                nrf__device__p0_31
 .bss.nrf__device__p1_00
                0x0000000020000544        0xc C:\Users\JumpStart\Desktop\lehre\asyd\dev\Ada_Drivers_Library-master\boards\MicroBit\obj\zfp_lib_Debug\libada_drivers_library.a(nrf-device.o)
                0x0000000020000544                nrf__device__p1_00
 .bss.nrf__device__p1_01
                0x0000000020000550        0xc C:\Users\JumpStart\Desktop\lehre\asyd\dev\Ada_Drivers_Library-master\boards\MicroBit\obj\zfp_lib_Debug\libada_drivers_library.a(nrf-device.o)
                0x0000000020000550                nrf__device__p1_01
 .bss.nrf__device__p1_02
                0x000000002000055c        0xc C:\Users\JumpStart\Desktop\lehre\asyd\dev\Ada_Drivers_Library-master\boards\MicroBit\obj\zfp_lib_Debug\libada_drivers_library.a(nrf-device.o)
                0x000000002000055c                nrf__device__p1_02
 .bss.nrf__device__p1_03
                0x0000000020000568        0xc C:\Users\JumpStart\Desktop\lehre\asyd\dev\Ada_Drivers_Library-master\boards\MicroBit\obj\zfp_lib_Debug\libada_drivers_library.a(nrf-device.o)
                0x0000000020000568                nrf__device__p1_03
 .bss.nrf__device__p1_04
                0x0000000020000574        0xc C:\Users\JumpStart\Desktop\lehre\asyd\dev\Ada_Drivers_Library-master\boards\MicroBit\obj\zfp_lib_Debug\libada_drivers_library.a(nrf-device.o)
                0x0000000020000574                nrf__device__p1_04
 .bss.nrf__device__p1_05
                0x0000000020000580        0xc C:\Users\JumpStart\Desktop\lehre\asyd\dev\Ada_Drivers_Library-master\boards\MicroBit\obj\zfp_lib_Debug\libada_drivers_library.a(nrf-device.o)
                0x0000000020000580                nrf__device__p1_05
 .bss.nrf__device__p1_06
                0x000000002000058c        0xc C:\Users\JumpStart\Desktop\lehre\asyd\dev\Ada_Drivers_Library-master\boards\MicroBit\obj\zfp_lib_Debug\libada_drivers_library.a(nrf-device.o)
                0x000000002000058c                nrf__device__p1_06
 .bss.nrf__device__p1_07
                0x0000000020000598        0xc C:\Users\JumpStart\Desktop\lehre\asyd\dev\Ada_Drivers_Library-master\boards\MicroBit\obj\zfp_lib_Debug\libada_drivers_library.a(nrf-device.o)
                0x0000000020000598                nrf__device__p1_07
 .bss.nrf__device__p1_08
                0x00000000200005a4        0xc C:\Users\JumpStart\Desktop\lehre\asyd\dev\Ada_Drivers_Library-master\boards\MicroBit\obj\zfp_lib_Debug\libada_drivers_library.a(nrf-device.o)
                0x00000000200005a4                nrf__device__p1_08
 .bss.nrf__device__p1_09
                0x00000000200005b0        0xc C:\Users\JumpStart\Desktop\lehre\asyd\dev\Ada_Drivers_Library-master\boards\MicroBit\obj\zfp_lib_Debug\libada_drivers_library.a(nrf-device.o)
                0x00000000200005b0                nrf__device__p1_09
 .bss.nrf__device__rtc_0
                0x00000000200005bc        0x4 C:\Users\JumpStart\Desktop\lehre\asyd\dev\Ada_Drivers_Library-master\boards\MicroBit\obj\zfp_lib_Debug\libada_drivers_library.a(nrf-device.o)
                0x00000000200005bc                nrf__device__rtc_0
 .bss.nrf__device__rtc_1
                0x00000000200005c0        0x4 C:\Users\JumpStart\Desktop\lehre\asyd\dev\Ada_Drivers_Library-master\boards\MicroBit\obj\zfp_lib_Debug\libada_drivers_library.a(nrf-device.o)
                0x00000000200005c0                nrf__device__rtc_1
 .bss.nrf__device__rtc_2
                0x00000000200005c4        0x4 C:\Users\JumpStart\Desktop\lehre\asyd\dev\Ada_Drivers_Library-master\boards\MicroBit\obj\zfp_lib_Debug\libada_drivers_library.a(nrf-device.o)
                0x00000000200005c4                nrf__device__rtc_2
 .bss.nrf__device__twi_0
                0x00000000200005c8        0xc C:\Users\JumpStart\Desktop\lehre\asyd\dev\Ada_Drivers_Library-master\boards\MicroBit\obj\zfp_lib_Debug\libada_drivers_library.a(nrf-device.o)
                0x00000000200005c8                nrf__device__twi_0
 .bss.nrf__device__twi_1
                0x00000000200005d4        0xc C:\Users\JumpStart\Desktop\lehre\asyd\dev\Ada_Drivers_Library-master\boards\MicroBit\obj\zfp_lib_Debug\libada_drivers_library.a(nrf-device.o)
                0x00000000200005d4                nrf__device__twi_1
 .bss.nrf__device__spi_master_0
                0x00000000200005e0        0x8 C:\Users\JumpStart\Desktop\lehre\asyd\dev\Ada_Drivers_Library-master\boards\MicroBit\obj\zfp_lib_Debug\libada_drivers_library.a(nrf-device.o)
                0x00000000200005e0                nrf__device__spi_master_0
 .bss.nrf__device__spi_master_1
                0x00000000200005e8        0x8 C:\Users\JumpStart\Desktop\lehre\asyd\dev\Ada_Drivers_Library-master\boards\MicroBit\obj\zfp_lib_Debug\libada_drivers_library.a(nrf-device.o)
                0x00000000200005e8                nrf__device__spi_master_1
 .bss.nrf__device__spi_master_2
                0x00000000200005f0        0x8 C:\Users\JumpStart\Desktop\lehre\asyd\dev\Ada_Drivers_Library-master\boards\MicroBit\obj\zfp_lib_Debug\libada_drivers_library.a(nrf-device.o)
                0x00000000200005f0                nrf__device__spi_master_2
 .bss.nrf__device__timer_0
                0x00000000200005f8        0x8 C:\Users\JumpStart\Desktop\lehre\asyd\dev\Ada_Drivers_Library-master\boards\MicroBit\obj\zfp_lib_Debug\libada_drivers_library.a(nrf-device.o)
                0x00000000200005f8                nrf__device__timer_0
 .bss.nrf__device__timer_1
                0x0000000020000600        0x8 C:\Users\JumpStart\Desktop\lehre\asyd\dev\Ada_Drivers_Library-master\boards\MicroBit\obj\zfp_lib_Debug\libada_drivers_library.a(nrf-device.o)
                0x0000000020000600                nrf__device__timer_1
 .bss.nrf__device__timer_2
                0x0000000020000608        0x8 C:\Users\JumpStart\Desktop\lehre\asyd\dev\Ada_Drivers_Library-master\boards\MicroBit\obj\zfp_lib_Debug\libada_drivers_library.a(nrf-device.o)
                0x0000000020000608                nrf__device__timer_2
 .bss.nrf__device__timer_3
                0x0000000020000610        0x8 C:\Users\JumpStart\Desktop\lehre\asyd\dev\Ada_Drivers_Library-master\boards\MicroBit\obj\zfp_lib_Debug\libada_drivers_library.a(nrf-device.o)
                0x0000000020000610                nrf__device__timer_3
 .bss.nrf__device__timer_4
                0x0000000020000618        0x8 C:\Users\JumpStart\Desktop\lehre\asyd\dev\Ada_Drivers_Library-master\boards\MicroBit\obj\zfp_lib_Debug\libada_drivers_library.a(nrf-device.o)
                0x0000000020000618                nrf__device__timer_4
 .bss.nrf__device__uart_0
                0x0000000020000620        0xc C:\Users\JumpStart\Desktop\lehre\asyd\dev\Ada_Drivers_Library-master\boards\MicroBit\obj\zfp_lib_Debug\libada_drivers_library.a(nrf-device.o)
                0x0000000020000620                nrf__device__uart_0
 .bss.nrf__device__fe0_is_six
                0x000000002000062c        0x1 C:\Users\JumpStart\Desktop\lehre\asyd\dev\Ada_Drivers_Library-master\boards\MicroBit\obj\zfp_lib_Debug\libada_drivers_library.a(nrf-device.o)
 .bss.nrf__device__fe4_is_zero
                0x000000002000062d        0x1 C:\Users\JumpStart\Desktop\lehre\asyd\dev\Ada_Drivers_Library-master\boards\MicroBit\obj\zfp_lib_Debug\libada_drivers_library.a(nrf-device.o)
 *fill*         0x000000002000062e        0x2 
 .bss.nrf__interrupts__handlers
                0x0000000020000630       0x80 C:\Users\JumpStart\Desktop\lehre\asyd\dev\Ada_Drivers_Library-master\boards\MicroBit\obj\zfp_lib_Debug\libada_drivers_library.a(nrf-interrupts.o)
 .bss.__gnat_binder_ss_count
                0x00000000200006b0        0x4 C:\gnat\2020-arm-elf\arm-eabi\lib\gnat\zfp-cortex-m4f\adalib\libgnat.a(s-secsta.o)
                0x00000000200006b0                __gnat_binder_ss_count
 .bss.__gnat_default_ss_pool
                0x00000000200006b4        0x4 C:\gnat\2020-arm-elf\arm-eabi\lib\gnat\zfp-cortex-m4f\adalib\libgnat.a(s-secsta.o)
                0x00000000200006b4                __gnat_default_ss_pool
 .bss.__gnat_default_ss_size
                0x00000000200006b8        0x4 C:\gnat\2020-arm-elf\arm-eabi\lib\gnat\zfp-cortex-m4f\adalib\libgnat.a(s-secsta.o)
                0x00000000200006b8                __gnat_default_ss_size
 .bss.system__semihosting__buffer
                0x00000000200006bc       0x80 C:\gnat\2020-arm-elf\arm-eabi\lib\gnat\zfp-cortex-m4f\adalib\libgnat.a(s-semiho.o)
 *(COMMON)
                0x0000000020000740                . = ALIGN (0x8)
 *fill*         0x000000002000073c        0x4 
                0x0000000020000740                __bss_end = .
                0x0000000020000740                __interrupt_stack_start = .
 *(.interrupt_stacks)
                0x0000000020000740                . = ALIGN (0x8)
                0x0000000020000740                __interrupt_stack_end = .
                0x0000000020000740                __stack_start = .
                0x0000000020000f40                . = (. + DEFINED (__stack_size)?__stack_size:_DEFAULT_STACK_SIZE)
 *fill*         0x0000000020000740      0x800 
                0x0000000020000f40                . = ALIGN (0x8)
                0x0000000020000f40                __stack_end = .
                0x0000000020000f40                _end = .
                0x0000000020000f40                __heap_start = .
                0x0000000020010000                __heap_end = (ORIGIN (ram) + LENGTH (ram))
                0x00000000000001ac                __bss_words = ((__bss_end - __bss_start) >> 0x2)

.debug
 *(.debug)

.line
 *(.line)

.debug_srcinfo
 *(.debug_srcinfo)

.debug_sfnames
 *(.debug_sfnames)

.debug_aranges  0x0000000000000000      0x7b8
 *(.debug_aranges)
 .debug_aranges
                0x0000000000000000       0x20 main.o
 .debug_aranges
                0x0000000000000020       0x30 b__main.o
 .debug_aranges
                0x0000000000000050       0x80 C:\Users\JumpStart\Desktop\lehre\asyd\dev\Ada_Drivers_Library-master\boards\MicroBit\obj\zfp_lib_Debug\libada_drivers_library.a(cortex_m-nvic.o)
 .debug_aranges
                0x00000000000000d0       0x20 C:\Users\JumpStart\Desktop\lehre\asyd\dev\Ada_Drivers_Library-master\boards\MicroBit\obj\zfp_lib_Debug\libada_drivers_library.a(memory_barriers.o)
 .debug_aranges
                0x00000000000000f0       0x48 C:\Users\JumpStart\Desktop\lehre\asyd\dev\Ada_Drivers_Library-master\boards\MicroBit\obj\zfp_lib_Debug\libada_drivers_library.a(microbit-console.o)
 .debug_aranges
                0x0000000000000138       0x88 C:\Users\JumpStart\Desktop\lehre\asyd\dev\Ada_Drivers_Library-master\boards\MicroBit\obj\zfp_lib_Debug\libada_drivers_library.a(microbit-display.o)
 .debug_aranges
                0x00000000000001c0       0x98 C:\Users\JumpStart\Desktop\lehre\asyd\dev\Ada_Drivers_Library-master\boards\MicroBit\obj\zfp_lib_Debug\libada_drivers_library.a(microbit-time.o)
 .debug_aranges
                0x0000000000000258       0x70 C:\Users\JumpStart\Desktop\lehre\asyd\dev\Ada_Drivers_Library-master\boards\MicroBit\obj\zfp_lib_Debug\libada_drivers_library.a(nrf-clock.o)
 .debug_aranges
                0x00000000000002c8       0x80 C:\Users\JumpStart\Desktop\lehre\asyd\dev\Ada_Drivers_Library-master\boards\MicroBit\obj\zfp_lib_Debug\libada_drivers_library.a(nrf-device.o)
 .debug_aranges
                0x0000000000000348       0x48 C:\Users\JumpStart\Desktop\lehre\asyd\dev\Ada_Drivers_Library-master\boards\MicroBit\obj\zfp_lib_Debug\libada_drivers_library.a(nrf-events.o)
 .debug_aranges
                0x0000000000000390       0x68 C:\Users\JumpStart\Desktop\lehre\asyd\dev\Ada_Drivers_Library-master\boards\MicroBit\obj\zfp_lib_Debug\libada_drivers_library.a(nrf-gpio.o)
 .debug_aranges
                0x00000000000003f8       0x50 C:\Users\JumpStart\Desktop\lehre\asyd\dev\Ada_Drivers_Library-master\boards\MicroBit\obj\zfp_lib_Debug\libada_drivers_library.a(nrf-interrupts.o)
 .debug_aranges
                0x0000000000000448       0x60 C:\Users\JumpStart\Desktop\lehre\asyd\dev\Ada_Drivers_Library-master\boards\MicroBit\obj\zfp_lib_Debug\libada_drivers_library.a(nrf-rtc.o)
 .debug_aranges
                0x00000000000004a8       0x78 C:\Users\JumpStart\Desktop\lehre\asyd\dev\Ada_Drivers_Library-master\boards\MicroBit\obj\zfp_lib_Debug\libada_drivers_library.a(nrf-spi_master.o)
 .debug_aranges
                0x0000000000000520       0x30 C:\Users\JumpStart\Desktop\lehre\asyd\dev\Ada_Drivers_Library-master\boards\MicroBit\obj\zfp_lib_Debug\libada_drivers_library.a(nrf-tasks.o)
 .debug_aranges
                0x0000000000000550       0xb8 C:\Users\JumpStart\Desktop\lehre\asyd\dev\Ada_Drivers_Library-master\boards\MicroBit\obj\zfp_lib_Debug\libada_drivers_library.a(nrf-timers.o)
 .debug_aranges
                0x0000000000000608       0x68 C:\Users\JumpStart\Desktop\lehre\asyd\dev\Ada_Drivers_Library-master\boards\MicroBit\obj\zfp_lib_Debug\libada_drivers_library.a(nrf-twi.o)
 .debug_aranges
                0x0000000000000670       0x68 C:\Users\JumpStart\Desktop\lehre\asyd\dev\Ada_Drivers_Library-master\boards\MicroBit\obj\zfp_lib_Debug\libada_drivers_library.a(nrf-uart.o)
 .debug_aranges
                0x00000000000006d8       0x18 C:\Users\JumpStart\Desktop\lehre\asyd\dev\Ada_Drivers_Library-master\boards\MicroBit\obj\zfp_lib_Debug\libada_drivers_library.a(nrf_svd-gpio.o)
 .debug_aranges
                0x00000000000006f0       0x18 C:\Users\JumpStart\Desktop\lehre\asyd\dev\Ada_Drivers_Library-master\boards\MicroBit\obj\zfp_lib_Debug\libada_drivers_library.a(nrf_svd-twi.o)
 .debug_aranges
                0x0000000000000708       0x18 C:\Users\JumpStart\Desktop\lehre\asyd\dev\Ada_Drivers_Library-master\boards\MicroBit\obj\zfp_lib_Debug\libada_drivers_library.a(hal-gpio.o)
 .debug_aranges
                0x0000000000000720       0x18 C:\Users\JumpStart\Desktop\lehre\asyd\dev\Ada_Drivers_Library-master\boards\MicroBit\obj\zfp_lib_Debug\libada_drivers_library.a(hal-i2c.o)
 .debug_aranges
                0x0000000000000738       0x18 C:\Users\JumpStart\Desktop\lehre\asyd\dev\Ada_Drivers_Library-master\boards\MicroBit\obj\zfp_lib_Debug\libada_drivers_library.a(hal-spi.o)
 .debug_aranges
                0x0000000000000750       0x18 C:\Users\JumpStart\Desktop\lehre\asyd\dev\Ada_Drivers_Library-master\boards\MicroBit\obj\zfp_lib_Debug\libada_drivers_library.a(hal-time.o)
 .debug_aranges
                0x0000000000000768       0x18 C:\Users\JumpStart\Desktop\lehre\asyd\dev\Ada_Drivers_Library-master\boards\MicroBit\obj\zfp_lib_Debug\libada_drivers_library.a(hal-uart.o)
 .debug_aranges
                0x0000000000000780       0x20 C:\gnat\2020-arm-elf\arm-eabi\lib\gnat\zfp-cortex-m4f\adalib\libgnat.a(s-assert.o)
 .debug_aranges
                0x00000000000007a0       0x18 C:\gnat\2020-arm-elf\arm-eabi\lib\gnat\zfp-cortex-m4f\adalib\libgnat.a(a-except.o)

.debug_pubnames
 *(.debug_pubnames)

.debug_info     0x0000000000000000     0xd7c7
 *(.debug_info .gnu.linkonce.wi.*)
 .debug_info    0x0000000000000000       0x3c main.o
 .debug_info    0x000000000000003c      0x50f b__main.o
 .debug_info    0x000000000000054b      0xb13 C:\Users\JumpStart\Desktop\lehre\asyd\dev\Ada_Drivers_Library-master\boards\MicroBit\obj\zfp_lib_Debug\libada_drivers_library.a(cortex_m-nvic.o)
 .debug_info    0x000000000000105e       0x44 C:\Users\JumpStart\Desktop\lehre\asyd\dev\Ada_Drivers_Library-master\boards\MicroBit\obj\zfp_lib_Debug\libada_drivers_library.a(memory_barriers.o)
 .debug_info    0x00000000000010a2      0xe5b C:\Users\JumpStart\Desktop\lehre\asyd\dev\Ada_Drivers_Library-master\boards\MicroBit\obj\zfp_lib_Debug\libada_drivers_library.a(microbit-console.o)
 .debug_info    0x0000000000001efd      0x92c C:\Users\JumpStart\Desktop\lehre\asyd\dev\Ada_Drivers_Library-master\boards\MicroBit\obj\zfp_lib_Debug\libada_drivers_library.a(microbit-display.o)
 .debug_info    0x0000000000002829      0x531 C:\Users\JumpStart\Desktop\lehre\asyd\dev\Ada_Drivers_Library-master\boards\MicroBit\obj\zfp_lib_Debug\libada_drivers_library.a(microbit-time.o)
 .debug_info    0x0000000000002d5a      0x1ee C:\Users\JumpStart\Desktop\lehre\asyd\dev\Ada_Drivers_Library-master\boards\MicroBit\obj\zfp_lib_Debug\libada_drivers_library.a(nrf-clock.o)
 .debug_info    0x0000000000002f48     0x3035 C:\Users\JumpStart\Desktop\lehre\asyd\dev\Ada_Drivers_Library-master\boards\MicroBit\obj\zfp_lib_Debug\libada_drivers_library.a(nrf-device.o)
 .debug_info    0x0000000000005f7d      0x894 C:\Users\JumpStart\Desktop\lehre\asyd\dev\Ada_Drivers_Library-master\boards\MicroBit\obj\zfp_lib_Debug\libada_drivers_library.a(nrf-events.o)
 .debug_info    0x0000000000006811      0x6de C:\Users\JumpStart\Desktop\lehre\asyd\dev\Ada_Drivers_Library-master\boards\MicroBit\obj\zfp_lib_Debug\libada_drivers_library.a(nrf-gpio.o)
 .debug_info    0x0000000000006eef      0x2cc C:\Users\JumpStart\Desktop\lehre\asyd\dev\Ada_Drivers_Library-master\boards\MicroBit\obj\zfp_lib_Debug\libada_drivers_library.a(nrf-interrupts.o)
 .debug_info    0x00000000000071bb      0xcd0 C:\Users\JumpStart\Desktop\lehre\asyd\dev\Ada_Drivers_Library-master\boards\MicroBit\obj\zfp_lib_Debug\libada_drivers_library.a(nrf-rtc.o)
 .debug_info    0x0000000000007e8b      0xda9 C:\Users\JumpStart\Desktop\lehre\asyd\dev\Ada_Drivers_Library-master\boards\MicroBit\obj\zfp_lib_Debug\libada_drivers_library.a(nrf-spi_master.o)
 .debug_info    0x0000000000008c34      0x8c1 C:\Users\JumpStart\Desktop\lehre\asyd\dev\Ada_Drivers_Library-master\boards\MicroBit\obj\zfp_lib_Debug\libada_drivers_library.a(nrf-tasks.o)
 .debug_info    0x00000000000094f5      0xdad C:\Users\JumpStart\Desktop\lehre\asyd\dev\Ada_Drivers_Library-master\boards\MicroBit\obj\zfp_lib_Debug\libada_drivers_library.a(nrf-timers.o)
 .debug_info    0x000000000000a2a2      0xfa1 C:\Users\JumpStart\Desktop\lehre\asyd\dev\Ada_Drivers_Library-master\boards\MicroBit\obj\zfp_lib_Debug\libada_drivers_library.a(nrf-twi.o)
 .debug_info    0x000000000000b243     0x1020 C:\Users\JumpStart\Desktop\lehre\asyd\dev\Ada_Drivers_Library-master\boards\MicroBit\obj\zfp_lib_Debug\libada_drivers_library.a(nrf-uart.o)
 .debug_info    0x000000000000c263      0x84c C:\Users\JumpStart\Desktop\lehre\asyd\dev\Ada_Drivers_Library-master\boards\MicroBit\obj\zfp_lib_Debug\libada_drivers_library.a(nrf_svd-gpio.o)
 .debug_info    0x000000000000caaf      0x874 C:\Users\JumpStart\Desktop\lehre\asyd\dev\Ada_Drivers_Library-master\boards\MicroBit\obj\zfp_lib_Debug\libada_drivers_library.a(nrf_svd-twi.o)
 .debug_info    0x000000000000d323       0x3a C:\Users\JumpStart\Desktop\lehre\asyd\dev\Ada_Drivers_Library-master\boards\MicroBit\obj\zfp_lib_Debug\libada_drivers_library.a(hal-gpio.o)
 .debug_info    0x000000000000d35d       0x5d C:\Users\JumpStart\Desktop\lehre\asyd\dev\Ada_Drivers_Library-master\boards\MicroBit\obj\zfp_lib_Debug\libada_drivers_library.a(hal-i2c.o)
 .debug_info    0x000000000000d3ba       0x56 C:\Users\JumpStart\Desktop\lehre\asyd\dev\Ada_Drivers_Library-master\boards\MicroBit\obj\zfp_lib_Debug\libada_drivers_library.a(hal-spi.o)
 .debug_info    0x000000000000d410       0x3a C:\Users\JumpStart\Desktop\lehre\asyd\dev\Ada_Drivers_Library-master\boards\MicroBit\obj\zfp_lib_Debug\libada_drivers_library.a(hal-time.o)
 .debug_info    0x000000000000d44a       0x4f C:\Users\JumpStart\Desktop\lehre\asyd\dev\Ada_Drivers_Library-master\boards\MicroBit\obj\zfp_lib_Debug\libada_drivers_library.a(hal-uart.o)
 .debug_info    0x000000000000d499      0x1d1 C:\gnat\2020-arm-elf\arm-eabi\lib\gnat\zfp-cortex-m4f\adalib\libgnat.a(s-assert.o)
 .debug_info    0x000000000000d66a      0x15d C:\gnat\2020-arm-elf\arm-eabi\lib\gnat\zfp-cortex-m4f\adalib\libgnat.a(a-except.o)

.debug_abbrev   0x0000000000000000     0x2e72
 *(.debug_abbrev)
 .debug_abbrev  0x0000000000000000       0x2e main.o
 .debug_abbrev  0x000000000000002e      0x228 b__main.o
 .debug_abbrev  0x0000000000000256      0x234 C:\Users\JumpStart\Desktop\lehre\asyd\dev\Ada_Drivers_Library-master\boards\MicroBit\obj\zfp_lib_Debug\libada_drivers_library.a(cortex_m-nvic.o)
 .debug_abbrev  0x000000000000048a       0x3b C:\Users\JumpStart\Desktop\lehre\asyd\dev\Ada_Drivers_Library-master\boards\MicroBit\obj\zfp_lib_Debug\libada_drivers_library.a(memory_barriers.o)
 .debug_abbrev  0x00000000000004c5      0x376 C:\Users\JumpStart\Desktop\lehre\asyd\dev\Ada_Drivers_Library-master\boards\MicroBit\obj\zfp_lib_Debug\libada_drivers_library.a(microbit-console.o)
 .debug_abbrev  0x000000000000083b      0x2f6 C:\Users\JumpStart\Desktop\lehre\asyd\dev\Ada_Drivers_Library-master\boards\MicroBit\obj\zfp_lib_Debug\libada_drivers_library.a(microbit-display.o)
 .debug_abbrev  0x0000000000000b31      0x22a C:\Users\JumpStart\Desktop\lehre\asyd\dev\Ada_Drivers_Library-master\boards\MicroBit\obj\zfp_lib_Debug\libada_drivers_library.a(microbit-time.o)
 .debug_abbrev  0x0000000000000d5b       0xef C:\Users\JumpStart\Desktop\lehre\asyd\dev\Ada_Drivers_Library-master\boards\MicroBit\obj\zfp_lib_Debug\libada_drivers_library.a(nrf-clock.o)
 .debug_abbrev  0x0000000000000e4a      0x394 C:\Users\JumpStart\Desktop\lehre\asyd\dev\Ada_Drivers_Library-master\boards\MicroBit\obj\zfp_lib_Debug\libada_drivers_library.a(nrf-device.o)
 .debug_abbrev  0x00000000000011de      0x11e C:\Users\JumpStart\Desktop\lehre\asyd\dev\Ada_Drivers_Library-master\boards\MicroBit\obj\zfp_lib_Debug\libada_drivers_library.a(nrf-events.o)
 .debug_abbrev  0x00000000000012fc      0x1e6 C:\Users\JumpStart\Desktop\lehre\asyd\dev\Ada_Drivers_Library-master\boards\MicroBit\obj\zfp_lib_Debug\libada_drivers_library.a(nrf-gpio.o)
 .debug_abbrev  0x00000000000014e2      0x18b C:\Users\JumpStart\Desktop\lehre\asyd\dev\Ada_Drivers_Library-master\boards\MicroBit\obj\zfp_lib_Debug\libada_drivers_library.a(nrf-interrupts.o)
 .debug_abbrev  0x000000000000166d      0x32b C:\Users\JumpStart\Desktop\lehre\asyd\dev\Ada_Drivers_Library-master\boards\MicroBit\obj\zfp_lib_Debug\libada_drivers_library.a(nrf-rtc.o)
 .debug_abbrev  0x0000000000001998      0x336 C:\Users\JumpStart\Desktop\lehre\asyd\dev\Ada_Drivers_Library-master\boards\MicroBit\obj\zfp_lib_Debug\libada_drivers_library.a(nrf-spi_master.o)
 .debug_abbrev  0x0000000000001cce       0xdf C:\Users\JumpStart\Desktop\lehre\asyd\dev\Ada_Drivers_Library-master\boards\MicroBit\obj\zfp_lib_Debug\libada_drivers_library.a(nrf-tasks.o)
 .debug_abbrev  0x0000000000001dad      0x34d C:\Users\JumpStart\Desktop\lehre\asyd\dev\Ada_Drivers_Library-master\boards\MicroBit\obj\zfp_lib_Debug\libada_drivers_library.a(nrf-timers.o)
 .debug_abbrev  0x00000000000020fa      0x39c C:\Users\JumpStart\Desktop\lehre\asyd\dev\Ada_Drivers_Library-master\boards\MicroBit\obj\zfp_lib_Debug\libada_drivers_library.a(nrf-twi.o)
 .debug_abbrev  0x0000000000002496      0x34c C:\Users\JumpStart\Desktop\lehre\asyd\dev\Ada_Drivers_Library-master\boards\MicroBit\obj\zfp_lib_Debug\libada_drivers_library.a(nrf-uart.o)
 .debug_abbrev  0x00000000000027e2      0x1f0 C:\Users\JumpStart\Desktop\lehre\asyd\dev\Ada_Drivers_Library-master\boards\MicroBit\obj\zfp_lib_Debug\libada_drivers_library.a(nrf_svd-gpio.o)
 .debug_abbrev  0x00000000000029d2      0x1c5 C:\Users\JumpStart\Desktop\lehre\asyd\dev\Ada_Drivers_Library-master\boards\MicroBit\obj\zfp_lib_Debug\libada_drivers_library.a(nrf_svd-twi.o)
 .debug_abbrev  0x0000000000002b97       0x1b C:\Users\JumpStart\Desktop\lehre\asyd\dev\Ada_Drivers_Library-master\boards\MicroBit\obj\zfp_lib_Debug\libada_drivers_library.a(hal-gpio.o)
 .debug_abbrev  0x0000000000002bb2       0x28 C:\Users\JumpStart\Desktop\lehre\asyd\dev\Ada_Drivers_Library-master\boards\MicroBit\obj\zfp_lib_Debug\libada_drivers_library.a(hal-i2c.o)
 .debug_abbrev  0x0000000000002bda       0x28 C:\Users\JumpStart\Desktop\lehre\asyd\dev\Ada_Drivers_Library-master\boards\MicroBit\obj\zfp_lib_Debug\libada_drivers_library.a(hal-spi.o)
 .debug_abbrev  0x0000000000002c02       0x1b C:\Users\JumpStart\Desktop\lehre\asyd\dev\Ada_Drivers_Library-master\boards\MicroBit\obj\zfp_lib_Debug\libada_drivers_library.a(hal-time.o)
 .debug_abbrev  0x0000000000002c1d       0x28 C:\Users\JumpStart\Desktop\lehre\asyd\dev\Ada_Drivers_Library-master\boards\MicroBit\obj\zfp_lib_Debug\libada_drivers_library.a(hal-uart.o)
 .debug_abbrev  0x0000000000002c45      0x132 C:\gnat\2020-arm-elf\arm-eabi\lib\gnat\zfp-cortex-m4f\adalib\libgnat.a(s-assert.o)
 .debug_abbrev  0x0000000000002d77       0xfb C:\gnat\2020-arm-elf\arm-eabi\lib\gnat\zfp-cortex-m4f\adalib\libgnat.a(a-except.o)

.debug_line     0x0000000000000000     0x4958
 *(.debug_line)
 .debug_line    0x0000000000000000       0xbc main.o
 .debug_line    0x00000000000000bc      0x170 b__main.o
 .debug_line    0x000000000000022c      0x4d4 C:\Users\JumpStart\Desktop\lehre\asyd\dev\Ada_Drivers_Library-master\boards\MicroBit\obj\zfp_lib_Debug\libada_drivers_library.a(cortex_m-nvic.o)
 .debug_line    0x0000000000000700       0xbd C:\Users\JumpStart\Desktop\lehre\asyd\dev\Ada_Drivers_Library-master\boards\MicroBit\obj\zfp_lib_Debug\libada_drivers_library.a(memory_barriers.o)
 .debug_line    0x00000000000007bd      0x49f C:\Users\JumpStart\Desktop\lehre\asyd\dev\Ada_Drivers_Library-master\boards\MicroBit\obj\zfp_lib_Debug\libada_drivers_library.a(microbit-console.o)
 .debug_line    0x0000000000000c5c      0x6f4 C:\Users\JumpStart\Desktop\lehre\asyd\dev\Ada_Drivers_Library-master\boards\MicroBit\obj\zfp_lib_Debug\libada_drivers_library.a(microbit-display.o)
 .debug_line    0x0000000000001350      0x475 C:\Users\JumpStart\Desktop\lehre\asyd\dev\Ada_Drivers_Library-master\boards\MicroBit\obj\zfp_lib_Debug\libada_drivers_library.a(microbit-time.o)
 .debug_line    0x00000000000017c5      0x2b8 C:\Users\JumpStart\Desktop\lehre\asyd\dev\Ada_Drivers_Library-master\boards\MicroBit\obj\zfp_lib_Debug\libada_drivers_library.a(nrf-clock.o)
 .debug_line    0x0000000000001a7d      0x581 C:\Users\JumpStart\Desktop\lehre\asyd\dev\Ada_Drivers_Library-master\boards\MicroBit\obj\zfp_lib_Debug\libada_drivers_library.a(nrf-device.o)
 .debug_line    0x0000000000001ffe      0x23d C:\Users\JumpStart\Desktop\lehre\asyd\dev\Ada_Drivers_Library-master\boards\MicroBit\obj\zfp_lib_Debug\libada_drivers_library.a(nrf-events.o)
 .debug_line    0x000000000000223b      0x71a C:\Users\JumpStart\Desktop\lehre\asyd\dev\Ada_Drivers_Library-master\boards\MicroBit\obj\zfp_lib_Debug\libada_drivers_library.a(nrf-gpio.o)
 .debug_line    0x0000000000002955      0x1f9 C:\Users\JumpStart\Desktop\lehre\asyd\dev\Ada_Drivers_Library-master\boards\MicroBit\obj\zfp_lib_Debug\libada_drivers_library.a(nrf-interrupts.o)
 .debug_line    0x0000000000002b4e      0x366 C:\Users\JumpStart\Desktop\lehre\asyd\dev\Ada_Drivers_Library-master\boards\MicroBit\obj\zfp_lib_Debug\libada_drivers_library.a(nrf-rtc.o)
 .debug_line    0x0000000000002eb4      0x69f C:\Users\JumpStart\Desktop\lehre\asyd\dev\Ada_Drivers_Library-master\boards\MicroBit\obj\zfp_lib_Debug\libada_drivers_library.a(nrf-spi_master.o)
 .debug_line    0x0000000000003553      0x15c C:\Users\JumpStart\Desktop\lehre\asyd\dev\Ada_Drivers_Library-master\boards\MicroBit\obj\zfp_lib_Debug\libada_drivers_library.a(nrf-tasks.o)
 .debug_line    0x00000000000036af      0x501 C:\Users\JumpStart\Desktop\lehre\asyd\dev\Ada_Drivers_Library-master\boards\MicroBit\obj\zfp_lib_Debug\libada_drivers_library.a(nrf-timers.o)
 .debug_line    0x0000000000003bb0      0x55d C:\Users\JumpStart\Desktop\lehre\asyd\dev\Ada_Drivers_Library-master\boards\MicroBit\obj\zfp_lib_Debug\libada_drivers_library.a(nrf-twi.o)
 .debug_line    0x000000000000410d      0x3fe C:\Users\JumpStart\Desktop\lehre\asyd\dev\Ada_Drivers_Library-master\boards\MicroBit\obj\zfp_lib_Debug\libada_drivers_library.a(nrf-uart.o)
 .debug_line    0x000000000000450b       0xe8 C:\Users\JumpStart\Desktop\lehre\asyd\dev\Ada_Drivers_Library-master\boards\MicroBit\obj\zfp_lib_Debug\libada_drivers_library.a(nrf_svd-gpio.o)
 .debug_line    0x00000000000045f3      0x132 C:\Users\JumpStart\Desktop\lehre\asyd\dev\Ada_Drivers_Library-master\boards\MicroBit\obj\zfp_lib_Debug\libada_drivers_library.a(nrf_svd-twi.o)
 .debug_line    0x0000000000004725       0x1d C:\Users\JumpStart\Desktop\lehre\asyd\dev\Ada_Drivers_Library-master\boards\MicroBit\obj\zfp_lib_Debug\libada_drivers_library.a(hal-gpio.o)
 .debug_line    0x0000000000004742       0x1d C:\Users\JumpStart\Desktop\lehre\asyd\dev\Ada_Drivers_Library-master\boards\MicroBit\obj\zfp_lib_Debug\libada_drivers_library.a(hal-i2c.o)
 .debug_line    0x000000000000475f       0x1d C:\Users\JumpStart\Desktop\lehre\asyd\dev\Ada_Drivers_Library-master\boards\MicroBit\obj\zfp_lib_Debug\libada_drivers_library.a(hal-spi.o)
 .debug_line    0x000000000000477c       0x1d C:\Users\JumpStart\Desktop\lehre\asyd\dev\Ada_Drivers_Library-master\boards\MicroBit\obj\zfp_lib_Debug\libada_drivers_library.a(hal-time.o)
 .debug_line    0x0000000000004799       0x1d C:\Users\JumpStart\Desktop\lehre\asyd\dev\Ada_Drivers_Library-master\boards\MicroBit\obj\zfp_lib_Debug\libada_drivers_library.a(hal-uart.o)
 .debug_line    0x00000000000047b6       0xf0 C:\gnat\2020-arm-elf\arm-eabi\lib\gnat\zfp-cortex-m4f\adalib\libgnat.a(s-assert.o)
 .debug_line    0x00000000000048a6       0xb2 C:\gnat\2020-arm-elf\arm-eabi\lib\gnat\zfp-cortex-m4f\adalib\libgnat.a(a-except.o)

.debug_frame    0x0000000000000000     0x2684
 *(.debug_frame)
 .debug_frame   0x0000000000000000       0x34 main.o
 .debug_frame   0x0000000000000034       0x98 b__main.o
 .debug_frame   0x00000000000000cc      0x278 C:\Users\JumpStart\Desktop\lehre\asyd\dev\Ada_Drivers_Library-master\boards\MicroBit\obj\zfp_lib_Debug\libada_drivers_library.a(cortex_m-nvic.o)
 .debug_frame   0x0000000000000344       0x30 C:\Users\JumpStart\Desktop\lehre\asyd\dev\Ada_Drivers_Library-master\boards\MicroBit\obj\zfp_lib_Debug\libada_drivers_library.a(memory_barriers.o)
 .debug_frame   0x0000000000000374       0xec C:\Users\JumpStart\Desktop\lehre\asyd\dev\Ada_Drivers_Library-master\boards\MicroBit\obj\zfp_lib_Debug\libada_drivers_library.a(microbit-console.o)
 .debug_frame   0x0000000000000460      0x258 C:\Users\JumpStart\Desktop\lehre\asyd\dev\Ada_Drivers_Library-master\boards\MicroBit\obj\zfp_lib_Debug\libada_drivers_library.a(microbit-display.o)
 .debug_frame   0x00000000000006b8      0x2ec C:\Users\JumpStart\Desktop\lehre\asyd\dev\Ada_Drivers_Library-master\boards\MicroBit\obj\zfp_lib_Debug\libada_drivers_library.a(microbit-time.o)
 .debug_frame   0x00000000000009a4      0x168 C:\Users\JumpStart\Desktop\lehre\asyd\dev\Ada_Drivers_Library-master\boards\MicroBit\obj\zfp_lib_Debug\libada_drivers_library.a(nrf-clock.o)
 .debug_frame   0x0000000000000b0c      0x194 C:\Users\JumpStart\Desktop\lehre\asyd\dev\Ada_Drivers_Library-master\boards\MicroBit\obj\zfp_lib_Debug\libada_drivers_library.a(nrf-device.o)
 .debug_frame   0x0000000000000ca0       0xf0 C:\Users\JumpStart\Desktop\lehre\asyd\dev\Ada_Drivers_Library-master\boards\MicroBit\obj\zfp_lib_Debug\libada_drivers_library.a(nrf-events.o)
 .debug_frame   0x0000000000000d90      0x254 C:\Users\JumpStart\Desktop\lehre\asyd\dev\Ada_Drivers_Library-master\boards\MicroBit\obj\zfp_lib_Debug\libada_drivers_library.a(nrf-gpio.o)
 .debug_frame   0x0000000000000fe4      0x104 C:\Users\JumpStart\Desktop\lehre\asyd\dev\Ada_Drivers_Library-master\boards\MicroBit\obj\zfp_lib_Debug\libada_drivers_library.a(nrf-interrupts.o)
 .debug_frame   0x00000000000010e8      0x194 C:\Users\JumpStart\Desktop\lehre\asyd\dev\Ada_Drivers_Library-master\boards\MicroBit\obj\zfp_lib_Debug\libada_drivers_library.a(nrf-rtc.o)
 .debug_frame   0x000000000000127c      0x294 C:\Users\JumpStart\Desktop\lehre\asyd\dev\Ada_Drivers_Library-master\boards\MicroBit\obj\zfp_lib_Debug\libada_drivers_library.a(nrf-spi_master.o)
 .debug_frame   0x0000000000001510       0x84 C:\Users\JumpStart\Desktop\lehre\asyd\dev\Ada_Drivers_Library-master\boards\MicroBit\obj\zfp_lib_Debug\libada_drivers_library.a(nrf-tasks.o)
 .debug_frame   0x0000000000001594      0x3bc C:\Users\JumpStart\Desktop\lehre\asyd\dev\Ada_Drivers_Library-master\boards\MicroBit\obj\zfp_lib_Debug\libada_drivers_library.a(nrf-timers.o)
 .debug_frame   0x0000000000001950      0x248 C:\Users\JumpStart\Desktop\lehre\asyd\dev\Ada_Drivers_Library-master\boards\MicroBit\obj\zfp_lib_Debug\libada_drivers_library.a(nrf-twi.o)
 .debug_frame   0x0000000000001b98      0x260 C:\Users\JumpStart\Desktop\lehre\asyd\dev\Ada_Drivers_Library-master\boards\MicroBit\obj\zfp_lib_Debug\libada_drivers_library.a(nrf-uart.o)
 .debug_frame   0x0000000000001df8      0x604 C:\Users\JumpStart\Desktop\lehre\asyd\dev\Ada_Drivers_Library-master\boards\MicroBit\obj\zfp_lib_Debug\libada_drivers_library.a(nrf_svd-gpio.o)
 .debug_frame   0x00000000000023fc      0x19c C:\Users\JumpStart\Desktop\lehre\asyd\dev\Ada_Drivers_Library-master\boards\MicroBit\obj\zfp_lib_Debug\libada_drivers_library.a(nrf_svd-twi.o)
 .debug_frame   0x0000000000002598       0x60 C:\Users\JumpStart\Desktop\lehre\asyd\dev\Ada_Drivers_Library-master\boards\MicroBit\obj\zfp_lib_Debug\libada_drivers_library.a(hal-spi.o)
 .debug_frame   0x00000000000025f8       0x60 C:\Users\JumpStart\Desktop\lehre\asyd\dev\Ada_Drivers_Library-master\boards\MicroBit\obj\zfp_lib_Debug\libada_drivers_library.a(hal-uart.o)
 .debug_frame   0x0000000000002658       0x2c C:\gnat\2020-arm-elf\arm-eabi\lib\gnat\zfp-cortex-m4f\adalib\libgnat.a(s-assert.o)

.debug_str      0x0000000000000000     0xad39
 *(.debug_str)
 .debug_str     0x0000000000000000      0x2c2 main.o
                                        0x2c7 (size before relaxing)
 .debug_str     0x00000000000002c2      0x860 b__main.o
                                        0x907 (size before relaxing)
 .debug_str     0x0000000000000b22      0xba2 C:\Users\JumpStart\Desktop\lehre\asyd\dev\Ada_Drivers_Library-master\boards\MicroBit\obj\zfp_lib_Debug\libada_drivers_library.a(cortex_m-nvic.o)
                                        0xdd8 (size before relaxing)
 .debug_str     0x00000000000016c4       0xb2 C:\Users\JumpStart\Desktop\lehre\asyd\dev\Ada_Drivers_Library-master\boards\MicroBit\obj\zfp_lib_Debug\libada_drivers_library.a(memory_barriers.o)
                                        0x2f0 (size before relaxing)
 .debug_str     0x0000000000001776     0x12e1 C:\Users\JumpStart\Desktop\lehre\asyd\dev\Ada_Drivers_Library-master\boards\MicroBit\obj\zfp_lib_Debug\libada_drivers_library.a(microbit-console.o)
                                       0x1430 (size before relaxing)
 .debug_str     0x0000000000002a57      0xa80 C:\Users\JumpStart\Desktop\lehre\asyd\dev\Ada_Drivers_Library-master\boards\MicroBit\obj\zfp_lib_Debug\libada_drivers_library.a(microbit-display.o)
                                        0xe56 (size before relaxing)
 .debug_str     0x00000000000034d7      0x490 C:\Users\JumpStart\Desktop\lehre\asyd\dev\Ada_Drivers_Library-master\boards\MicroBit\obj\zfp_lib_Debug\libada_drivers_library.a(microbit-time.o)
                                        0x881 (size before relaxing)
 .debug_str     0x0000000000003967      0x30e C:\Users\JumpStart\Desktop\lehre\asyd\dev\Ada_Drivers_Library-master\boards\MicroBit\obj\zfp_lib_Debug\libada_drivers_library.a(nrf-clock.o)
                                        0x5d3 (size before relaxing)
 .debug_str     0x0000000000003c75     0x2e15 C:\Users\JumpStart\Desktop\lehre\asyd\dev\Ada_Drivers_Library-master\boards\MicroBit\obj\zfp_lib_Debug\libada_drivers_library.a(nrf-device.o)
                                       0x3f66 (size before relaxing)
 .debug_str     0x0000000000006a8a      0x9e0 C:\Users\JumpStart\Desktop\lehre\asyd\dev\Ada_Drivers_Library-master\boards\MicroBit\obj\zfp_lib_Debug\libada_drivers_library.a(nrf-events.o)
                                        0xeac (size before relaxing)
 .debug_str     0x000000000000746a      0x4e6 C:\Users\JumpStart\Desktop\lehre\asyd\dev\Ada_Drivers_Library-master\boards\MicroBit\obj\zfp_lib_Debug\libada_drivers_library.a(nrf-gpio.o)
                                        0xbcf (size before relaxing)
 .debug_str     0x0000000000007950      0x653 C:\Users\JumpStart\Desktop\lehre\asyd\dev\Ada_Drivers_Library-master\boards\MicroBit\obj\zfp_lib_Debug\libada_drivers_library.a(nrf-interrupts.o)
                                        0x90f (size before relaxing)
 .debug_str     0x0000000000007fa3      0x1fa C:\Users\JumpStart\Desktop\lehre\asyd\dev\Ada_Drivers_Library-master\boards\MicroBit\obj\zfp_lib_Debug\libada_drivers_library.a(nrf-rtc.o)
                                       0x1082 (size before relaxing)
 .debug_str     0x000000000000819d      0x56c C:\Users\JumpStart\Desktop\lehre\asyd\dev\Ada_Drivers_Library-master\boards\MicroBit\obj\zfp_lib_Debug\libada_drivers_library.a(nrf-spi_master.o)
                                        0xf6d (size before relaxing)
 .debug_str     0x0000000000008709      0xa2c C:\Users\JumpStart\Desktop\lehre\asyd\dev\Ada_Drivers_Library-master\boards\MicroBit\obj\zfp_lib_Debug\libada_drivers_library.a(nrf-tasks.o)
                                        0xf6c (size before relaxing)
 .debug_str     0x0000000000009135      0x381 C:\Users\JumpStart\Desktop\lehre\asyd\dev\Ada_Drivers_Library-master\boards\MicroBit\obj\zfp_lib_Debug\libada_drivers_library.a(nrf-timers.o)
                                       0x130b (size before relaxing)
 .debug_str     0x00000000000094b6      0x328 C:\Users\JumpStart\Desktop\lehre\asyd\dev\Ada_Drivers_Library-master\boards\MicroBit\obj\zfp_lib_Debug\libada_drivers_library.a(nrf-twi.o)
                                       0x1451 (size before relaxing)
 .debug_str     0x00000000000097de      0x36e C:\Users\JumpStart\Desktop\lehre\asyd\dev\Ada_Drivers_Library-master\boards\MicroBit\obj\zfp_lib_Debug\libada_drivers_library.a(nrf-uart.o)
                                       0x15e0 (size before relaxing)
 .debug_str     0x0000000000009b4c      0x7c2 C:\Users\JumpStart\Desktop\lehre\asyd\dev\Ada_Drivers_Library-master\boards\MicroBit\obj\zfp_lib_Debug\libada_drivers_library.a(nrf_svd-gpio.o)
                                        0xd56 (size before relaxing)
 .debug_str     0x000000000000a30e       0xa3 C:\Users\JumpStart\Desktop\lehre\asyd\dev\Ada_Drivers_Library-master\boards\MicroBit\obj\zfp_lib_Debug\libada_drivers_library.a(nrf_svd-twi.o)
                                        0xe39 (size before relaxing)
 .debug_str     0x000000000000a3b1       0x5a C:\Users\JumpStart\Desktop\lehre\asyd\dev\Ada_Drivers_Library-master\boards\MicroBit\obj\zfp_lib_Debug\libada_drivers_library.a(hal-gpio.o)
                                        0x2c2 (size before relaxing)
 .debug_str     0x000000000000a40b       0x59 C:\Users\JumpStart\Desktop\lehre\asyd\dev\Ada_Drivers_Library-master\boards\MicroBit\obj\zfp_lib_Debug\libada_drivers_library.a(hal-i2c.o)
                                        0x31d (size before relaxing)
 .debug_str     0x000000000000a464       0x59 C:\Users\JumpStart\Desktop\lehre\asyd\dev\Ada_Drivers_Library-master\boards\MicroBit\obj\zfp_lib_Debug\libada_drivers_library.a(hal-spi.o)
                                        0x30b (size before relaxing)
 .debug_str     0x000000000000a4bd       0x5a C:\Users\JumpStart\Desktop\lehre\asyd\dev\Ada_Drivers_Library-master\boards\MicroBit\obj\zfp_lib_Debug\libada_drivers_library.a(hal-time.o)
                                        0x2c2 (size before relaxing)
 .debug_str     0x000000000000a517       0x5a C:\Users\JumpStart\Desktop\lehre\asyd\dev\Ada_Drivers_Library-master\boards\MicroBit\obj\zfp_lib_Debug\libada_drivers_library.a(hal-uart.o)
                                        0x2f7 (size before relaxing)
 .debug_str     0x000000000000a571      0x433 C:\gnat\2020-arm-elf\arm-eabi\lib\gnat\zfp-cortex-m4f\adalib\libgnat.a(s-assert.o)
                                        0x4d7 (size before relaxing)
 .debug_str     0x000000000000a9a4      0x395 C:\gnat\2020-arm-elf\arm-eabi\lib\gnat\zfp-cortex-m4f\adalib\libgnat.a(a-except.o)
                                        0x462 (size before relaxing)

.debug_loc      0x0000000000000000       0x2c
 *(.debug_loc)
 .debug_loc     0x0000000000000000       0x2c C:\gnat\2020-arm-elf\arm-eabi\lib\gnat\zfp-cortex-m4f\adalib\libgnat.a(s-assert.o)

.debug_macinfo
 *(.debug_macinfo)

.debug_pubtypes
 *(.debug_pubtypes)

.debug_ranges   0x0000000000000000      0x5c8
 *(.debug_ranges)
 .debug_ranges  0x0000000000000000       0x10 main.o
 .debug_ranges  0x0000000000000010       0x20 b__main.o
 .debug_ranges  0x0000000000000030       0x70 C:\Users\JumpStart\Desktop\lehre\asyd\dev\Ada_Drivers_Library-master\boards\MicroBit\obj\zfp_lib_Debug\libada_drivers_library.a(cortex_m-nvic.o)
 .debug_ranges  0x00000000000000a0       0x10 C:\Users\JumpStart\Desktop\lehre\asyd\dev\Ada_Drivers_Library-master\boards\MicroBit\obj\zfp_lib_Debug\libada_drivers_library.a(memory_barriers.o)
 .debug_ranges  0x00000000000000b0       0x38 C:\Users\JumpStart\Desktop\lehre\asyd\dev\Ada_Drivers_Library-master\boards\MicroBit\obj\zfp_lib_Debug\libada_drivers_library.a(microbit-console.o)
 .debug_ranges  0x00000000000000e8       0x78 C:\Users\JumpStart\Desktop\lehre\asyd\dev\Ada_Drivers_Library-master\boards\MicroBit\obj\zfp_lib_Debug\libada_drivers_library.a(microbit-display.o)
 .debug_ranges  0x0000000000000160       0x88 C:\Users\JumpStart\Desktop\lehre\asyd\dev\Ada_Drivers_Library-master\boards\MicroBit\obj\zfp_lib_Debug\libada_drivers_library.a(microbit-time.o)
 .debug_ranges  0x00000000000001e8       0x60 C:\Users\JumpStart\Desktop\lehre\asyd\dev\Ada_Drivers_Library-master\boards\MicroBit\obj\zfp_lib_Debug\libada_drivers_library.a(nrf-clock.o)
 .debug_ranges  0x0000000000000248       0x70 C:\Users\JumpStart\Desktop\lehre\asyd\dev\Ada_Drivers_Library-master\boards\MicroBit\obj\zfp_lib_Debug\libada_drivers_library.a(nrf-device.o)
 .debug_ranges  0x00000000000002b8       0x38 C:\Users\JumpStart\Desktop\lehre\asyd\dev\Ada_Drivers_Library-master\boards\MicroBit\obj\zfp_lib_Debug\libada_drivers_library.a(nrf-events.o)
 .debug_ranges  0x00000000000002f0       0x58 C:\Users\JumpStart\Desktop\lehre\asyd\dev\Ada_Drivers_Library-master\boards\MicroBit\obj\zfp_lib_Debug\libada_drivers_library.a(nrf-gpio.o)
 .debug_ranges  0x0000000000000348       0x40 C:\Users\JumpStart\Desktop\lehre\asyd\dev\Ada_Drivers_Library-master\boards\MicroBit\obj\zfp_lib_Debug\libada_drivers_library.a(nrf-interrupts.o)
 .debug_ranges  0x0000000000000388       0x50 C:\Users\JumpStart\Desktop\lehre\asyd\dev\Ada_Drivers_Library-master\boards\MicroBit\obj\zfp_lib_Debug\libada_drivers_library.a(nrf-rtc.o)
 .debug_ranges  0x00000000000003d8       0x68 C:\Users\JumpStart\Desktop\lehre\asyd\dev\Ada_Drivers_Library-master\boards\MicroBit\obj\zfp_lib_Debug\libada_drivers_library.a(nrf-spi_master.o)
 .debug_ranges  0x0000000000000440       0x20 C:\Users\JumpStart\Desktop\lehre\asyd\dev\Ada_Drivers_Library-master\boards\MicroBit\obj\zfp_lib_Debug\libada_drivers_library.a(nrf-tasks.o)
 .debug_ranges  0x0000000000000460       0xa8 C:\Users\JumpStart\Desktop\lehre\asyd\dev\Ada_Drivers_Library-master\boards\MicroBit\obj\zfp_lib_Debug\libada_drivers_library.a(nrf-timers.o)
 .debug_ranges  0x0000000000000508       0x58 C:\Users\JumpStart\Desktop\lehre\asyd\dev\Ada_Drivers_Library-master\boards\MicroBit\obj\zfp_lib_Debug\libada_drivers_library.a(nrf-twi.o)
 .debug_ranges  0x0000000000000560       0x58 C:\Users\JumpStart\Desktop\lehre\asyd\dev\Ada_Drivers_Library-master\boards\MicroBit\obj\zfp_lib_Debug\libada_drivers_library.a(nrf-uart.o)
 .debug_ranges  0x00000000000005b8       0x10 C:\gnat\2020-arm-elf\arm-eabi\lib\gnat\zfp-cortex-m4f\adalib\libgnat.a(s-assert.o)

.comment        0x0000000000000000       0x3d
 .comment       0x0000000000000000       0x3d main.o
                                         0x3e (size before relaxing)
 .comment       0x000000000000003d       0x3e b__main.o
 .comment       0x000000000000003d       0x3e C:\Users\JumpStart\Desktop\lehre\asyd\dev\Ada_Drivers_Library-master\boards\MicroBit\obj\zfp_lib_Debug\libada_drivers_library.a(cortex_m-nvic.o)
 .comment       0x000000000000003d       0x3e C:\Users\JumpStart\Desktop\lehre\asyd\dev\Ada_Drivers_Library-master\boards\MicroBit\obj\zfp_lib_Debug\libada_drivers_library.a(memory_barriers.o)
 .comment       0x000000000000003d       0x3e C:\Users\JumpStart\Desktop\lehre\asyd\dev\Ada_Drivers_Library-master\boards\MicroBit\obj\zfp_lib_Debug\libada_drivers_library.a(microbit-console.o)
 .comment       0x000000000000003d       0x3e C:\Users\JumpStart\Desktop\lehre\asyd\dev\Ada_Drivers_Library-master\boards\MicroBit\obj\zfp_lib_Debug\libada_drivers_library.a(microbit-display.o)
 .comment       0x000000000000003d       0x3e C:\Users\JumpStart\Desktop\lehre\asyd\dev\Ada_Drivers_Library-master\boards\MicroBit\obj\zfp_lib_Debug\libada_drivers_library.a(microbit-time.o)
 .comment       0x000000000000003d       0x3e C:\Users\JumpStart\Desktop\lehre\asyd\dev\Ada_Drivers_Library-master\boards\MicroBit\obj\zfp_lib_Debug\libada_drivers_library.a(nrf-clock.o)
 .comment       0x000000000000003d       0x3e C:\Users\JumpStart\Desktop\lehre\asyd\dev\Ada_Drivers_Library-master\boards\MicroBit\obj\zfp_lib_Debug\libada_drivers_library.a(nrf-device.o)
 .comment       0x000000000000003d       0x3e C:\Users\JumpStart\Desktop\lehre\asyd\dev\Ada_Drivers_Library-master\boards\MicroBit\obj\zfp_lib_Debug\libada_drivers_library.a(nrf-events.o)
 .comment       0x000000000000003d       0x3e C:\Users\JumpStart\Desktop\lehre\asyd\dev\Ada_Drivers_Library-master\boards\MicroBit\obj\zfp_lib_Debug\libada_drivers_library.a(nrf-gpio.o)
 .comment       0x000000000000003d       0x3e C:\Users\JumpStart\Desktop\lehre\asyd\dev\Ada_Drivers_Library-master\boards\MicroBit\obj\zfp_lib_Debug\libada_drivers_library.a(nrf-interrupts.o)
 .comment       0x000000000000003d       0x3e C:\Users\JumpStart\Desktop\lehre\asyd\dev\Ada_Drivers_Library-master\boards\MicroBit\obj\zfp_lib_Debug\libada_drivers_library.a(nrf-rtc.o)
 .comment       0x000000000000003d       0x3e C:\Users\JumpStart\Desktop\lehre\asyd\dev\Ada_Drivers_Library-master\boards\MicroBit\obj\zfp_lib_Debug\libada_drivers_library.a(nrf-spi_master.o)
 .comment       0x000000000000003d       0x3e C:\Users\JumpStart\Desktop\lehre\asyd\dev\Ada_Drivers_Library-master\boards\MicroBit\obj\zfp_lib_Debug\libada_drivers_library.a(nrf-tasks.o)
 .comment       0x000000000000003d       0x3e C:\Users\JumpStart\Desktop\lehre\asyd\dev\Ada_Drivers_Library-master\boards\MicroBit\obj\zfp_lib_Debug\libada_drivers_library.a(nrf-timers.o)
 .comment       0x000000000000003d       0x3e C:\Users\JumpStart\Desktop\lehre\asyd\dev\Ada_Drivers_Library-master\boards\MicroBit\obj\zfp_lib_Debug\libada_drivers_library.a(nrf-twi.o)
 .comment       0x000000000000003d       0x3e C:\Users\JumpStart\Desktop\lehre\asyd\dev\Ada_Drivers_Library-master\boards\MicroBit\obj\zfp_lib_Debug\libada_drivers_library.a(nrf-uart.o)
 .comment       0x000000000000003d       0x3e C:\Users\JumpStart\Desktop\lehre\asyd\dev\Ada_Drivers_Library-master\boards\MicroBit\obj\zfp_lib_Debug\libada_drivers_library.a(nrf_svd-gpio.o)
 .comment       0x000000000000003d       0x3e C:\Users\JumpStart\Desktop\lehre\asyd\dev\Ada_Drivers_Library-master\boards\MicroBit\obj\zfp_lib_Debug\libada_drivers_library.a(nrf_svd-twi.o)
 .comment       0x000000000000003d       0x3e C:\Users\JumpStart\Desktop\lehre\asyd\dev\Ada_Drivers_Library-master\boards\MicroBit\obj\zfp_lib_Debug\libada_drivers_library.a(hal-gpio.o)
 .comment       0x000000000000003d       0x3e C:\Users\JumpStart\Desktop\lehre\asyd\dev\Ada_Drivers_Library-master\boards\MicroBit\obj\zfp_lib_Debug\libada_drivers_library.a(hal-i2c.o)
 .comment       0x000000000000003d       0x3e C:\Users\JumpStart\Desktop\lehre\asyd\dev\Ada_Drivers_Library-master\boards\MicroBit\obj\zfp_lib_Debug\libada_drivers_library.a(hal-spi.o)
 .comment       0x000000000000003d       0x3e C:\Users\JumpStart\Desktop\lehre\asyd\dev\Ada_Drivers_Library-master\boards\MicroBit\obj\zfp_lib_Debug\libada_drivers_library.a(hal-time.o)
 .comment       0x000000000000003d       0x3e C:\Users\JumpStart\Desktop\lehre\asyd\dev\Ada_Drivers_Library-master\boards\MicroBit\obj\zfp_lib_Debug\libada_drivers_library.a(hal-uart.o)
 .comment       0x000000000000003d       0x3e C:\gnat\2020-arm-elf\arm-eabi\lib\gnat\zfp-cortex-m4f\adalib\libgnat.a(a-elchha.o)
 .comment       0x000000000000003d       0x3e C:\gnat\2020-arm-elf\arm-eabi\lib\gnat\zfp-cortex-m4f\adalib\libgnat.a(g-io.o)
 .comment       0x000000000000003d       0x3e C:\gnat\2020-arm-elf\arm-eabi\lib\gnat\zfp-cortex-m4f\adalib\libgnat.a(s-assert.o)
 .comment       0x000000000000003d       0x3e C:\gnat\2020-arm-elf\arm-eabi\lib\gnat\zfp-cortex-m4f\adalib\libgnat.a(s-macres.o)
 .comment       0x000000000000003d       0x3e C:\gnat\2020-arm-elf\arm-eabi\lib\gnat\zfp-cortex-m4f\adalib\libgnat.a(s-memcop.o)
 .comment       0x000000000000003d       0x3e C:\gnat\2020-arm-elf\arm-eabi\lib\gnat\zfp-cortex-m4f\adalib\libgnat.a(s-memmov.o)
 .comment       0x000000000000003d       0x3e C:\gnat\2020-arm-elf\arm-eabi\lib\gnat\zfp-cortex-m4f\adalib\libgnat.a(s-memset.o)
 .comment       0x000000000000003d       0x3e C:\gnat\2020-arm-elf\arm-eabi\lib\gnat\zfp-cortex-m4f\adalib\libgnat.a(s-secsta.o)
 .comment       0x000000000000003d       0x3e C:\gnat\2020-arm-elf\arm-eabi\lib\gnat\zfp-cortex-m4f\adalib\libgnat.a(s-textio.o)
 .comment       0x000000000000003d       0x3e C:\gnat\2020-arm-elf\arm-eabi\lib\gnat\zfp-cortex-m4f\adalib\libgnat.a(a-except.o)
 .comment       0x000000000000003d       0x3e C:\gnat\2020-arm-elf\arm-eabi\lib\gnat\zfp-cortex-m4f\adalib\libgnat.a(s-semiho.o)

.ARM.attributes
                0x0000000000000000       0x30
 .ARM.attributes
                0x0000000000000000       0x32 main.o
 .ARM.attributes
                0x0000000000000032       0x32 b__main.o
 .ARM.attributes
                0x0000000000000064       0x32 C:\Users\JumpStart\Desktop\lehre\asyd\dev\Ada_Drivers_Library-master\boards\MicroBit\obj\zfp_lib_Debug\libada_drivers_library.a(cortex_m-nvic.o)
 .ARM.attributes
                0x0000000000000096       0x25 C:\Users\JumpStart\Desktop\lehre\asyd\dev\Ada_Drivers_Library-master\boards\MicroBit\obj\zfp_lib_Debug\libada_drivers_library.a(crt0.o)
 .ARM.attributes
                0x00000000000000bb       0x32 C:\Users\JumpStart\Desktop\lehre\asyd\dev\Ada_Drivers_Library-master\boards\MicroBit\obj\zfp_lib_Debug\libada_drivers_library.a(memory_barriers.o)
 .ARM.attributes
                0x00000000000000ed       0x32 C:\Users\JumpStart\Desktop\lehre\asyd\dev\Ada_Drivers_Library-master\boards\MicroBit\obj\zfp_lib_Debug\libada_drivers_library.a(microbit-console.o)
 .ARM.attributes
                0x000000000000011f       0x32 C:\Users\JumpStart\Desktop\lehre\asyd\dev\Ada_Drivers_Library-master\boards\MicroBit\obj\zfp_lib_Debug\libada_drivers_library.a(microbit-display.o)
 .ARM.attributes
                0x0000000000000151       0x32 C:\Users\JumpStart\Desktop\lehre\asyd\dev\Ada_Drivers_Library-master\boards\MicroBit\obj\zfp_lib_Debug\libada_drivers_library.a(microbit-time.o)
 .ARM.attributes
                0x0000000000000183       0x32 C:\Users\JumpStart\Desktop\lehre\asyd\dev\Ada_Drivers_Library-master\boards\MicroBit\obj\zfp_lib_Debug\libada_drivers_library.a(nrf-clock.o)
 .ARM.attributes
                0x00000000000001b5       0x32 C:\Users\JumpStart\Desktop\lehre\asyd\dev\Ada_Drivers_Library-master\boards\MicroBit\obj\zfp_lib_Debug\libada_drivers_library.a(nrf-device.o)
 .ARM.attributes
                0x00000000000001e7       0x32 C:\Users\JumpStart\Desktop\lehre\asyd\dev\Ada_Drivers_Library-master\boards\MicroBit\obj\zfp_lib_Debug\libada_drivers_library.a(nrf-events.o)
 .ARM.attributes
                0x0000000000000219       0x32 C:\Users\JumpStart\Desktop\lehre\asyd\dev\Ada_Drivers_Library-master\boards\MicroBit\obj\zfp_lib_Debug\libada_drivers_library.a(nrf-gpio.o)
 .ARM.attributes
                0x000000000000024b       0x32 C:\Users\JumpStart\Desktop\lehre\asyd\dev\Ada_Drivers_Library-master\boards\MicroBit\obj\zfp_lib_Debug\libada_drivers_library.a(nrf-interrupts.o)
 .ARM.attributes
                0x000000000000027d       0x32 C:\Users\JumpStart\Desktop\lehre\asyd\dev\Ada_Drivers_Library-master\boards\MicroBit\obj\zfp_lib_Debug\libada_drivers_library.a(nrf-rtc.o)
 .ARM.attributes
                0x00000000000002af       0x32 C:\Users\JumpStart\Desktop\lehre\asyd\dev\Ada_Drivers_Library-master\boards\MicroBit\obj\zfp_lib_Debug\libada_drivers_library.a(nrf-spi_master.o)
 .ARM.attributes
                0x00000000000002e1       0x32 C:\Users\JumpStart\Desktop\lehre\asyd\dev\Ada_Drivers_Library-master\boards\MicroBit\obj\zfp_lib_Debug\libada_drivers_library.a(nrf-tasks.o)
 .ARM.attributes
                0x0000000000000313       0x32 C:\Users\JumpStart\Desktop\lehre\asyd\dev\Ada_Drivers_Library-master\boards\MicroBit\obj\zfp_lib_Debug\libada_drivers_library.a(nrf-timers.o)
 .ARM.attributes
                0x0000000000000345       0x32 C:\Users\JumpStart\Desktop\lehre\asyd\dev\Ada_Drivers_Library-master\boards\MicroBit\obj\zfp_lib_Debug\libada_drivers_library.a(nrf-twi.o)
 .ARM.attributes
                0x0000000000000377       0x32 C:\Users\JumpStart\Desktop\lehre\asyd\dev\Ada_Drivers_Library-master\boards\MicroBit\obj\zfp_lib_Debug\libada_drivers_library.a(nrf-uart.o)
 .ARM.attributes
                0x00000000000003a9       0x32 C:\Users\JumpStart\Desktop\lehre\asyd\dev\Ada_Drivers_Library-master\boards\MicroBit\obj\zfp_lib_Debug\libada_drivers_library.a(nrf_svd-gpio.o)
 .ARM.attributes
                0x00000000000003db       0x32 C:\Users\JumpStart\Desktop\lehre\asyd\dev\Ada_Drivers_Library-master\boards\MicroBit\obj\zfp_lib_Debug\libada_drivers_library.a(nrf_svd-twi.o)
 .ARM.attributes
                0x000000000000040d       0x37 C:\Users\JumpStart\Desktop\lehre\asyd\dev\Ada_Drivers_Library-master\boards\MicroBit\obj\zfp_lib_Debug\libada_drivers_library.a(hal-gpio.o)
 .ARM.attributes
                0x0000000000000444       0x37 C:\Users\JumpStart\Desktop\lehre\asyd\dev\Ada_Drivers_Library-master\boards\MicroBit\obj\zfp_lib_Debug\libada_drivers_library.a(hal-i2c.o)
 .ARM.attributes
                0x000000000000047b       0x32 C:\Users\JumpStart\Desktop\lehre\asyd\dev\Ada_Drivers_Library-master\boards\MicroBit\obj\zfp_lib_Debug\libada_drivers_library.a(hal-spi.o)
 .ARM.attributes
                0x00000000000004ad       0x37 C:\Users\JumpStart\Desktop\lehre\asyd\dev\Ada_Drivers_Library-master\boards\MicroBit\obj\zfp_lib_Debug\libada_drivers_library.a(hal-time.o)
 .ARM.attributes
                0x00000000000004e4       0x32 C:\Users\JumpStart\Desktop\lehre\asyd\dev\Ada_Drivers_Library-master\boards\MicroBit\obj\zfp_lib_Debug\libada_drivers_library.a(hal-uart.o)
 .ARM.attributes
                0x0000000000000516       0x32 C:\gnat\2020-arm-elf\arm-eabi\lib\gnat\zfp-cortex-m4f\adalib\libgnat.a(a-elchha.o)
 .ARM.attributes
                0x0000000000000548       0x25 C:\gnat\2020-arm-elf\arm-eabi\lib\gnat\zfp-cortex-m4f\adalib\libgnat.a(breakpoint_handler-cortexm.o)
 .ARM.attributes
                0x000000000000056d       0x32 C:\gnat\2020-arm-elf\arm-eabi\lib\gnat\zfp-cortex-m4f\adalib\libgnat.a(g-io.o)
 .ARM.attributes
                0x000000000000059f       0x32 C:\gnat\2020-arm-elf\arm-eabi\lib\gnat\zfp-cortex-m4f\adalib\libgnat.a(s-assert.o)
 .ARM.attributes
                0x00000000000005d1       0x32 C:\gnat\2020-arm-elf\arm-eabi\lib\gnat\zfp-cortex-m4f\adalib\libgnat.a(s-macres.o)
 .ARM.attributes
                0x0000000000000603       0x32 C:\gnat\2020-arm-elf\arm-eabi\lib\gnat\zfp-cortex-m4f\adalib\libgnat.a(s-memcop.o)
 .ARM.attributes
                0x0000000000000635       0x32 C:\gnat\2020-arm-elf\arm-eabi\lib\gnat\zfp-cortex-m4f\adalib\libgnat.a(s-memmov.o)
 .ARM.attributes
                0x0000000000000667       0x32 C:\gnat\2020-arm-elf\arm-eabi\lib\gnat\zfp-cortex-m4f\adalib\libgnat.a(s-memset.o)
 .ARM.attributes
                0x0000000000000699       0x32 C:\gnat\2020-arm-elf\arm-eabi\lib\gnat\zfp-cortex-m4f\adalib\libgnat.a(s-secsta.o)
 .ARM.attributes
                0x00000000000006cb       0x32 C:\gnat\2020-arm-elf\arm-eabi\lib\gnat\zfp-cortex-m4f\adalib\libgnat.a(s-textio.o)
 .ARM.attributes
                0x00000000000006fd       0x37 C:\gnat\2020-arm-elf\arm-eabi\lib\gnat\zfp-cortex-m4f\adalib\libgnat.a(a-except.o)
 .ARM.attributes
                0x0000000000000734       0x32 C:\gnat\2020-arm-elf\arm-eabi\lib\gnat\zfp-cortex-m4f\adalib\libgnat.a(s-semiho.o)

.gnu.attributes
 *(.gnu.attributes)

/DISCARD/
 *(.note.GNU-stack)
 *(.gnu_debuglink)
 *(.gnu.lto_*)
OUTPUT(main elf32-littlearm)
LOAD linker stubs
